
PwmGen.elf:     file format elf32-avr

Sections:
Idx Name          Size      VMA       LMA       File off  Algn
  0 .text         00001b24  00000000  00000000  00000094  2**1
                  CONTENTS, ALLOC, LOAD, READONLY, CODE
  1 .data         00000040  00800060  00001b24  00001bb8  2**0
                  CONTENTS, ALLOC, LOAD, DATA
  2 .bss          0000001b  008000a0  008000a0  00001bf8  2**0
                  ALLOC
  3 .comment      0000005c  00000000  00000000  00001bf8  2**0
                  CONTENTS, READONLY
  4 .note.gnu.avr.deviceinfo 0000003c  00000000  00000000  00001c54  2**2
                  CONTENTS, READONLY
  5 .debug_aranges 00000158  00000000  00000000  00001c90  2**0
                  CONTENTS, READONLY, DEBUGGING
  6 .debug_info   000012eb  00000000  00000000  00001de8  2**0
                  CONTENTS, READONLY, DEBUGGING
  7 .debug_abbrev 00000943  00000000  00000000  000030d3  2**0
                  CONTENTS, READONLY, DEBUGGING
  8 .debug_line   0000070b  00000000  00000000  00003a16  2**0
                  CONTENTS, READONLY, DEBUGGING
  9 .debug_frame  000003a4  00000000  00000000  00004124  2**2
                  CONTENTS, READONLY, DEBUGGING
 10 .debug_str    00000628  00000000  00000000  000044c8  2**0
                  CONTENTS, READONLY, DEBUGGING
 11 .debug_loc    00000860  00000000  00000000  00004af0  2**0
                  CONTENTS, READONLY, DEBUGGING
 12 .debug_ranges 000000f8  00000000  00000000  00005350  2**0
                  CONTENTS, READONLY, DEBUGGING

Disassembly of section .text:

00000000 <__vectors>:
       0:	0c 94 ad 00 	jmp	0x15a	; 0x15a <__dtors_end>
       4:	0c 94 d5 00 	jmp	0x1aa	; 0x1aa <__bad_interrupt>
       8:	0c 94 d5 00 	jmp	0x1aa	; 0x1aa <__bad_interrupt>
       c:	0c 94 80 03 	jmp	0x700	; 0x700 <__vector_3>
      10:	0c 94 d5 00 	jmp	0x1aa	; 0x1aa <__bad_interrupt>
      14:	0c 94 d5 00 	jmp	0x1aa	; 0x1aa <__bad_interrupt>
      18:	0c 94 d5 00 	jmp	0x1aa	; 0x1aa <__bad_interrupt>
      1c:	0c 94 d5 00 	jmp	0x1aa	; 0x1aa <__bad_interrupt>
      20:	0c 94 d5 00 	jmp	0x1aa	; 0x1aa <__bad_interrupt>
      24:	0c 94 d5 00 	jmp	0x1aa	; 0x1aa <__bad_interrupt>
      28:	0c 94 d5 00 	jmp	0x1aa	; 0x1aa <__bad_interrupt>
      2c:	0c 94 d5 00 	jmp	0x1aa	; 0x1aa <__bad_interrupt>
      30:	0c 94 d5 00 	jmp	0x1aa	; 0x1aa <__bad_interrupt>
      34:	0c 94 d5 00 	jmp	0x1aa	; 0x1aa <__bad_interrupt>
      38:	0c 94 d5 00 	jmp	0x1aa	; 0x1aa <__bad_interrupt>
      3c:	0c 94 d5 00 	jmp	0x1aa	; 0x1aa <__bad_interrupt>
      40:	0c 94 d5 00 	jmp	0x1aa	; 0x1aa <__bad_interrupt>
      44:	0c 94 d5 00 	jmp	0x1aa	; 0x1aa <__bad_interrupt>
      48:	0c 94 d5 00 	jmp	0x1aa	; 0x1aa <__bad_interrupt>
      4c:	0c 94 d5 00 	jmp	0x1aa	; 0x1aa <__bad_interrupt>
      50:	0c 94 d5 00 	jmp	0x1aa	; 0x1aa <__bad_interrupt>

00000054 <__trampolines_end>:
      54:	6e 61       	ori	r22, 0x1E	; 30
      56:	6e 00       	.word	0x006e	; ????

00000058 <__c.2177>:
      58:	69 6e 66 00 00 40 7a 10 f3 5a 00 a0 72 4e 18 09     inf..@z..Z..rN..
      68:	00 10 a5 d4 e8 00 00 e8 76 48 17 00 00 e4 0b 54     ........vH.....T
      78:	02 00 00 ca 9a 3b 00 00 00 e1 f5 05 00 00 80 96     .....;..........
      88:	98 00 00 00 40 42 0f 00 00 00 a0 86 01 00 00 00     ....@B..........
      98:	10 27 00 00 00 00 e8 03 00 00 00 00 64 00 00 00     .'..........d...
      a8:	00 00 0a 00 00 00 00 00 01 00 00 00 00 00 2c 76     ..............,v
      b8:	d8 88 dc 67 4f 08 23 df c1 df ae 59 e1 b1 b7 96     ...gO.#....Y....
      c8:	e5 e3 e4 53 c6 3a e6 51 99 76 96 e8 e6 c2 84 26     ...S.:.Q.v.....&
      d8:	eb 89 8c 9b 62 ed 40 7c 6f fc ef bc 9c 9f 40 f2     ....b.@|o.....@.
      e8:	ba a5 6f a5 f4 90 05 5a 2a f7 5c 93 6b 6c f9 67     ..o....Z*.\.kl.g
      f8:	6d c1 1b fc e0 e4 0d 47 fe f5 20 e6 b5 00 d0 ed     m......G.. .....
     108:	90 2e 03 00 94 35 77 05 00 80 84 1e 08 00 00 20     .....5w........ 
     118:	4e 0a 00 00 00 c8 0c 33 33 33 33 0f 98 6e 12 83     N......3333..n..
     128:	11 41 ef 8d 21 14 89 3b e6 55 16 cf fe e6 db 18     .A..!..;.U......
     138:	d1 84 4b 38 1b f7 7c 1d 90 1d a4 bb e4 24 20 32     ..K8..|......$ 2
     148:	84 72 5e 22 81 00 c9 f1 24 ec a1 e5 3d 27           .r^"....$...='

00000156 <__ctors_start>:
     156:	ff 04       	cpc	r15, r15

00000158 <__ctors_end>:
     158:	04 05       	cpc	r16, r4

0000015a <__dtors_end>:
     15a:	11 24       	eor	r1, r1
     15c:	1f be       	out	0x3f, r1	; 63
     15e:	cf e5       	ldi	r28, 0x5F	; 95
     160:	d4 e0       	ldi	r29, 0x04	; 4
     162:	de bf       	out	0x3e, r29	; 62
     164:	cd bf       	out	0x3d, r28	; 61

00000166 <__do_copy_data>:
     166:	10 e0       	ldi	r17, 0x00	; 0
     168:	a0 e6       	ldi	r26, 0x60	; 96
     16a:	b0 e0       	ldi	r27, 0x00	; 0
     16c:	e4 e2       	ldi	r30, 0x24	; 36
     16e:	fb e1       	ldi	r31, 0x1B	; 27
     170:	02 c0       	rjmp	.+4      	; 0x176 <__do_copy_data+0x10>
     172:	05 90       	lpm	r0, Z+
     174:	0d 92       	st	X+, r0
     176:	a0 3a       	cpi	r26, 0xA0	; 160
     178:	b1 07       	cpc	r27, r17
     17a:	d9 f7       	brne	.-10     	; 0x172 <__do_copy_data+0xc>

0000017c <__do_clear_bss>:
     17c:	20 e0       	ldi	r18, 0x00	; 0
     17e:	a0 ea       	ldi	r26, 0xA0	; 160
     180:	b0 e0       	ldi	r27, 0x00	; 0
     182:	01 c0       	rjmp	.+2      	; 0x186 <.do_clear_bss_start>

00000184 <.do_clear_bss_loop>:
     184:	1d 92       	st	X+, r1

00000186 <.do_clear_bss_start>:
     186:	ab 3b       	cpi	r26, 0xBB	; 187
     188:	b2 07       	cpc	r27, r18
     18a:	e1 f7       	brne	.-8      	; 0x184 <.do_clear_bss_loop>

0000018c <__do_global_ctors>:
     18c:	10 e0       	ldi	r17, 0x00	; 0
     18e:	cc ea       	ldi	r28, 0xAC	; 172
     190:	d0 e0       	ldi	r29, 0x00	; 0
     192:	04 c0       	rjmp	.+8      	; 0x19c <__do_global_ctors+0x10>
     194:	21 97       	sbiw	r28, 0x01	; 1
     196:	fe 01       	movw	r30, r28
     198:	0e 94 c9 0b 	call	0x1792	; 0x1792 <__tablejump2__>
     19c:	cb 3a       	cpi	r28, 0xAB	; 171
     19e:	d1 07       	cpc	r29, r17
     1a0:	c9 f7       	brne	.-14     	; 0x194 <__do_global_ctors+0x8>
     1a2:	0e 94 d6 04 	call	0x9ac	; 0x9ac <main>
     1a6:	0c 94 85 0d 	jmp	0x1b0a	; 0x1b0a <__do_global_dtors>

000001aa <__bad_interrupt>:
     1aa:	0c 94 00 00 	jmp	0	; 0x0 <__vectors>

000001ae <lcd_e_port_low>:
#if (LCD_DISPLAYS>1)
static unsigned char ActiveDisplay=1;
#endif

static inline void lcd_e_port_low()
{
     1ae:	cf 93       	push	r28
     1b0:	df 93       	push	r29
     1b2:	cd b7       	in	r28, 0x3d	; 61
     1b4:	de b7       	in	r29, 0x3e	; 62
      case 4 : LCD_E4_PORT&=~_BV(LCD_E4_PIN);
               break;
      #endif
      default :
  #endif
                LCD_E_PORT&=~_BV(LCD_E_PIN);
     1b6:	85 e3       	ldi	r24, 0x35	; 53
     1b8:	90 e0       	ldi	r25, 0x00	; 0
     1ba:	25 e3       	ldi	r18, 0x35	; 53
     1bc:	30 e0       	ldi	r19, 0x00	; 0
     1be:	f9 01       	movw	r30, r18
     1c0:	20 81       	ld	r18, Z
     1c2:	2f 7b       	andi	r18, 0xBF	; 191
     1c4:	fc 01       	movw	r30, r24
     1c6:	20 83       	st	Z, r18
  #if (LCD_DISPLAYS>1)
    }
  #endif
}
     1c8:	df 91       	pop	r29
     1ca:	cf 91       	pop	r28
     1cc:	08 95       	ret

000001ce <lcd_e_port_high>:

static inline void lcd_e_port_high()
{
     1ce:	cf 93       	push	r28
     1d0:	df 93       	push	r29
     1d2:	cd b7       	in	r28, 0x3d	; 61
     1d4:	de b7       	in	r29, 0x3e	; 62
      case 4 : LCD_E4_PORT|=_BV(LCD_E4_PIN);
               break;
      #endif
      default :
  #endif
                LCD_E_PORT|=_BV(LCD_E_PIN);
     1d6:	85 e3       	ldi	r24, 0x35	; 53
     1d8:	90 e0       	ldi	r25, 0x00	; 0
     1da:	25 e3       	ldi	r18, 0x35	; 53
     1dc:	30 e0       	ldi	r19, 0x00	; 0
     1de:	f9 01       	movw	r30, r18
     1e0:	20 81       	ld	r18, Z
     1e2:	20 64       	ori	r18, 0x40	; 64
     1e4:	fc 01       	movw	r30, r24
     1e6:	20 83       	st	Z, r18
  #if (LCD_DISPLAYS>1)
    }
  #endif
}
     1e8:	df 91       	pop	r29
     1ea:	cf 91       	pop	r28
     1ec:	08 95       	ret

000001ee <lcd_e_ddr_high>:
    }
  #endif
}

static inline void lcd_e_ddr_high()
{
     1ee:	cf 93       	push	r28
     1f0:	df 93       	push	r29
     1f2:	cd b7       	in	r28, 0x3d	; 61
     1f4:	de b7       	in	r29, 0x3e	; 62
      case 4 : DDR(LCD_E4_PORT)|=_BV(LCD_E4_PIN);
               break;
      #endif
      default :
  #endif
                DDR(LCD_E_PORT)|=_BV(LCD_E_PIN);
     1f6:	84 e3       	ldi	r24, 0x34	; 52
     1f8:	90 e0       	ldi	r25, 0x00	; 0
     1fa:	24 e3       	ldi	r18, 0x34	; 52
     1fc:	30 e0       	ldi	r19, 0x00	; 0
     1fe:	f9 01       	movw	r30, r18
     200:	20 81       	ld	r18, Z
     202:	20 64       	ori	r18, 0x40	; 64
     204:	fc 01       	movw	r30, r24
     206:	20 83       	st	Z, r18
  #if (LCD_DISPLAYS>1)
    }
  #endif
}
     208:	df 91       	pop	r29
     20a:	cf 91       	pop	r28
     20c:	08 95       	ret

0000020e <lcd_write>:
          rs     1: write data
                 0: write instruction
Returns:  none
*************************************************************************/
static void lcd_write(uint8_t data,uint8_t rs)
  {
     20e:	cf 93       	push	r28
     210:	df 93       	push	r29
     212:	00 d0       	rcall	.+0      	; 0x214 <lcd_write+0x6>
     214:	cd b7       	in	r28, 0x3d	; 61
     216:	de b7       	in	r29, 0x3e	; 62
     218:	89 83       	std	Y+1, r24	; 0x01
     21a:	6a 83       	std	Y+2, r22	; 0x02
          Delay_us(5);
          PrevCmdInvolvedAddressCounter=0;
        }
    #endif

    if (rs)
     21c:	8a 81       	ldd	r24, Y+2	; 0x02
     21e:	88 23       	and	r24, r24
     220:	51 f0       	breq	.+20     	; 0x236 <lcd_write+0x28>
      {
        lcd_rs_port_high();                            // RS=1: Write Character
     222:	85 e3       	ldi	r24, 0x35	; 53
     224:	90 e0       	ldi	r25, 0x00	; 0
     226:	25 e3       	ldi	r18, 0x35	; 53
     228:	30 e0       	ldi	r19, 0x00	; 0
     22a:	f9 01       	movw	r30, r18
     22c:	20 81       	ld	r18, Z
     22e:	20 61       	ori	r18, 0x10	; 16
     230:	fc 01       	movw	r30, r24
     232:	20 83       	st	Z, r18
     234:	09 c0       	rjmp	.+18     	; 0x248 <lcd_write+0x3a>
        PrevCmdInvolvedAddressCounter=1;
        #endif
      }
    else
      {
        lcd_rs_port_low();                          // RS=0: Write Command
     236:	85 e3       	ldi	r24, 0x35	; 53
     238:	90 e0       	ldi	r25, 0x00	; 0
     23a:	25 e3       	ldi	r18, 0x35	; 53
     23c:	30 e0       	ldi	r19, 0x00	; 0
     23e:	f9 01       	movw	r30, r18
     240:	20 81       	ld	r18, Z
     242:	2f 7e       	andi	r18, 0xEF	; 239
     244:	fc 01       	movw	r30, r24
     246:	20 83       	st	Z, r18
        PrevCmdInvolvedAddressCounter=0;
        #endif
      }

    #if LCD_BITS==4
      lcd_db7_port_set(data&_BV(7));                  //Output High Nibble
     248:	89 81       	ldd	r24, Y+1	; 0x01
     24a:	88 23       	and	r24, r24
     24c:	54 f4       	brge	.+20     	; 0x262 <lcd_write+0x54>
     24e:	85 e3       	ldi	r24, 0x35	; 53
     250:	90 e0       	ldi	r25, 0x00	; 0
     252:	25 e3       	ldi	r18, 0x35	; 53
     254:	30 e0       	ldi	r19, 0x00	; 0
     256:	f9 01       	movw	r30, r18
     258:	20 81       	ld	r18, Z
     25a:	28 60       	ori	r18, 0x08	; 8
     25c:	fc 01       	movw	r30, r24
     25e:	20 83       	st	Z, r18
     260:	09 c0       	rjmp	.+18     	; 0x274 <lcd_write+0x66>
     262:	85 e3       	ldi	r24, 0x35	; 53
     264:	90 e0       	ldi	r25, 0x00	; 0
     266:	25 e3       	ldi	r18, 0x35	; 53
     268:	30 e0       	ldi	r19, 0x00	; 0
     26a:	f9 01       	movw	r30, r18
     26c:	20 81       	ld	r18, Z
     26e:	27 7f       	andi	r18, 0xF7	; 247
     270:	fc 01       	movw	r30, r24
     272:	20 83       	st	Z, r18
      lcd_db6_port_set(data&_BV(6));
     274:	89 81       	ldd	r24, Y+1	; 0x01
     276:	88 2f       	mov	r24, r24
     278:	90 e0       	ldi	r25, 0x00	; 0
     27a:	80 74       	andi	r24, 0x40	; 64
     27c:	99 27       	eor	r25, r25
     27e:	89 2b       	or	r24, r25
     280:	51 f0       	breq	.+20     	; 0x296 <lcd_write+0x88>
     282:	85 e3       	ldi	r24, 0x35	; 53
     284:	90 e0       	ldi	r25, 0x00	; 0
     286:	25 e3       	ldi	r18, 0x35	; 53
     288:	30 e0       	ldi	r19, 0x00	; 0
     28a:	f9 01       	movw	r30, r18
     28c:	20 81       	ld	r18, Z
     28e:	24 60       	ori	r18, 0x04	; 4
     290:	fc 01       	movw	r30, r24
     292:	20 83       	st	Z, r18
     294:	09 c0       	rjmp	.+18     	; 0x2a8 <lcd_write+0x9a>
     296:	85 e3       	ldi	r24, 0x35	; 53
     298:	90 e0       	ldi	r25, 0x00	; 0
     29a:	25 e3       	ldi	r18, 0x35	; 53
     29c:	30 e0       	ldi	r19, 0x00	; 0
     29e:	f9 01       	movw	r30, r18
     2a0:	20 81       	ld	r18, Z
     2a2:	2b 7f       	andi	r18, 0xFB	; 251
     2a4:	fc 01       	movw	r30, r24
     2a6:	20 83       	st	Z, r18
      lcd_db5_port_set(data&_BV(5));
     2a8:	89 81       	ldd	r24, Y+1	; 0x01
     2aa:	88 2f       	mov	r24, r24
     2ac:	90 e0       	ldi	r25, 0x00	; 0
     2ae:	80 72       	andi	r24, 0x20	; 32
     2b0:	99 27       	eor	r25, r25
     2b2:	89 2b       	or	r24, r25
     2b4:	51 f0       	breq	.+20     	; 0x2ca <lcd_write+0xbc>
     2b6:	85 e3       	ldi	r24, 0x35	; 53
     2b8:	90 e0       	ldi	r25, 0x00	; 0
     2ba:	25 e3       	ldi	r18, 0x35	; 53
     2bc:	30 e0       	ldi	r19, 0x00	; 0
     2be:	f9 01       	movw	r30, r18
     2c0:	20 81       	ld	r18, Z
     2c2:	22 60       	ori	r18, 0x02	; 2
     2c4:	fc 01       	movw	r30, r24
     2c6:	20 83       	st	Z, r18
     2c8:	09 c0       	rjmp	.+18     	; 0x2dc <lcd_write+0xce>
     2ca:	85 e3       	ldi	r24, 0x35	; 53
     2cc:	90 e0       	ldi	r25, 0x00	; 0
     2ce:	25 e3       	ldi	r18, 0x35	; 53
     2d0:	30 e0       	ldi	r19, 0x00	; 0
     2d2:	f9 01       	movw	r30, r18
     2d4:	20 81       	ld	r18, Z
     2d6:	2d 7f       	andi	r18, 0xFD	; 253
     2d8:	fc 01       	movw	r30, r24
     2da:	20 83       	st	Z, r18
      lcd_db4_port_set(data&_BV(4));
     2dc:	89 81       	ldd	r24, Y+1	; 0x01
     2de:	88 2f       	mov	r24, r24
     2e0:	90 e0       	ldi	r25, 0x00	; 0
     2e2:	80 71       	andi	r24, 0x10	; 16
     2e4:	99 27       	eor	r25, r25
     2e6:	89 2b       	or	r24, r25
     2e8:	51 f0       	breq	.+20     	; 0x2fe <lcd_write+0xf0>
     2ea:	85 e3       	ldi	r24, 0x35	; 53
     2ec:	90 e0       	ldi	r25, 0x00	; 0
     2ee:	25 e3       	ldi	r18, 0x35	; 53
     2f0:	30 e0       	ldi	r19, 0x00	; 0
     2f2:	f9 01       	movw	r30, r18
     2f4:	20 81       	ld	r18, Z
     2f6:	21 60       	ori	r18, 0x01	; 1
     2f8:	fc 01       	movw	r30, r24
     2fa:	20 83       	st	Z, r18
     2fc:	09 c0       	rjmp	.+18     	; 0x310 <lcd_write+0x102>
     2fe:	85 e3       	ldi	r24, 0x35	; 53
     300:	90 e0       	ldi	r25, 0x00	; 0
     302:	25 e3       	ldi	r18, 0x35	; 53
     304:	30 e0       	ldi	r19, 0x00	; 0
     306:	f9 01       	movw	r30, r18
     308:	20 81       	ld	r18, Z
     30a:	2e 7f       	andi	r18, 0xFE	; 254
     30c:	fc 01       	movw	r30, r24
     30e:	20 83       	st	Z, r18

      Delay_ns(100);
     310:	00 c0       	rjmp	.+0      	; 0x312 <lcd_write+0x104>
      lcd_e_port_high();
     312:	0e 94 e7 00 	call	0x1ce	; 0x1ce <lcd_e_port_high>

      Delay_ns(500);
     316:	f2 e0       	ldi	r31, 0x02	; 2
     318:	fa 95       	dec	r31
     31a:	f1 f7       	brne	.-4      	; 0x318 <lcd_write+0x10a>
     31c:	00 c0       	rjmp	.+0      	; 0x31e <lcd_write+0x110>
      lcd_e_port_low();
     31e:	0e 94 d7 00 	call	0x1ae	; 0x1ae <lcd_e_port_low>

      lcd_db7_port_set(data&_BV(3));                  //Output High Nibble
     322:	89 81       	ldd	r24, Y+1	; 0x01
     324:	88 2f       	mov	r24, r24
     326:	90 e0       	ldi	r25, 0x00	; 0
     328:	88 70       	andi	r24, 0x08	; 8
     32a:	99 27       	eor	r25, r25
     32c:	89 2b       	or	r24, r25
     32e:	51 f0       	breq	.+20     	; 0x344 <lcd_write+0x136>
     330:	85 e3       	ldi	r24, 0x35	; 53
     332:	90 e0       	ldi	r25, 0x00	; 0
     334:	25 e3       	ldi	r18, 0x35	; 53
     336:	30 e0       	ldi	r19, 0x00	; 0
     338:	f9 01       	movw	r30, r18
     33a:	20 81       	ld	r18, Z
     33c:	28 60       	ori	r18, 0x08	; 8
     33e:	fc 01       	movw	r30, r24
     340:	20 83       	st	Z, r18
     342:	09 c0       	rjmp	.+18     	; 0x356 <lcd_write+0x148>
     344:	85 e3       	ldi	r24, 0x35	; 53
     346:	90 e0       	ldi	r25, 0x00	; 0
     348:	25 e3       	ldi	r18, 0x35	; 53
     34a:	30 e0       	ldi	r19, 0x00	; 0
     34c:	f9 01       	movw	r30, r18
     34e:	20 81       	ld	r18, Z
     350:	27 7f       	andi	r18, 0xF7	; 247
     352:	fc 01       	movw	r30, r24
     354:	20 83       	st	Z, r18
      lcd_db6_port_set(data&_BV(2));
     356:	89 81       	ldd	r24, Y+1	; 0x01
     358:	88 2f       	mov	r24, r24
     35a:	90 e0       	ldi	r25, 0x00	; 0
     35c:	84 70       	andi	r24, 0x04	; 4
     35e:	99 27       	eor	r25, r25
     360:	89 2b       	or	r24, r25
     362:	51 f0       	breq	.+20     	; 0x378 <lcd_write+0x16a>
     364:	85 e3       	ldi	r24, 0x35	; 53
     366:	90 e0       	ldi	r25, 0x00	; 0
     368:	25 e3       	ldi	r18, 0x35	; 53
     36a:	30 e0       	ldi	r19, 0x00	; 0
     36c:	f9 01       	movw	r30, r18
     36e:	20 81       	ld	r18, Z
     370:	24 60       	ori	r18, 0x04	; 4
     372:	fc 01       	movw	r30, r24
     374:	20 83       	st	Z, r18
     376:	09 c0       	rjmp	.+18     	; 0x38a <lcd_write+0x17c>
     378:	85 e3       	ldi	r24, 0x35	; 53
     37a:	90 e0       	ldi	r25, 0x00	; 0
     37c:	25 e3       	ldi	r18, 0x35	; 53
     37e:	30 e0       	ldi	r19, 0x00	; 0
     380:	f9 01       	movw	r30, r18
     382:	20 81       	ld	r18, Z
     384:	2b 7f       	andi	r18, 0xFB	; 251
     386:	fc 01       	movw	r30, r24
     388:	20 83       	st	Z, r18
      lcd_db5_port_set(data&_BV(1));
     38a:	89 81       	ldd	r24, Y+1	; 0x01
     38c:	88 2f       	mov	r24, r24
     38e:	90 e0       	ldi	r25, 0x00	; 0
     390:	82 70       	andi	r24, 0x02	; 2
     392:	99 27       	eor	r25, r25
     394:	89 2b       	or	r24, r25
     396:	51 f0       	breq	.+20     	; 0x3ac <lcd_write+0x19e>
     398:	85 e3       	ldi	r24, 0x35	; 53
     39a:	90 e0       	ldi	r25, 0x00	; 0
     39c:	25 e3       	ldi	r18, 0x35	; 53
     39e:	30 e0       	ldi	r19, 0x00	; 0
     3a0:	f9 01       	movw	r30, r18
     3a2:	20 81       	ld	r18, Z
     3a4:	22 60       	ori	r18, 0x02	; 2
     3a6:	fc 01       	movw	r30, r24
     3a8:	20 83       	st	Z, r18
     3aa:	09 c0       	rjmp	.+18     	; 0x3be <lcd_write+0x1b0>
     3ac:	85 e3       	ldi	r24, 0x35	; 53
     3ae:	90 e0       	ldi	r25, 0x00	; 0
     3b0:	25 e3       	ldi	r18, 0x35	; 53
     3b2:	30 e0       	ldi	r19, 0x00	; 0
     3b4:	f9 01       	movw	r30, r18
     3b6:	20 81       	ld	r18, Z
     3b8:	2d 7f       	andi	r18, 0xFD	; 253
     3ba:	fc 01       	movw	r30, r24
     3bc:	20 83       	st	Z, r18
      lcd_db4_port_set(data&_BV(0));
     3be:	89 81       	ldd	r24, Y+1	; 0x01
     3c0:	88 2f       	mov	r24, r24
     3c2:	90 e0       	ldi	r25, 0x00	; 0
     3c4:	81 70       	andi	r24, 0x01	; 1
     3c6:	99 27       	eor	r25, r25
     3c8:	89 2b       	or	r24, r25
     3ca:	51 f0       	breq	.+20     	; 0x3e0 <lcd_write+0x1d2>
     3cc:	85 e3       	ldi	r24, 0x35	; 53
     3ce:	90 e0       	ldi	r25, 0x00	; 0
     3d0:	25 e3       	ldi	r18, 0x35	; 53
     3d2:	30 e0       	ldi	r19, 0x00	; 0
     3d4:	f9 01       	movw	r30, r18
     3d6:	20 81       	ld	r18, Z
     3d8:	21 60       	ori	r18, 0x01	; 1
     3da:	fc 01       	movw	r30, r24
     3dc:	20 83       	st	Z, r18
     3de:	09 c0       	rjmp	.+18     	; 0x3f2 <lcd_write+0x1e4>
     3e0:	85 e3       	ldi	r24, 0x35	; 53
     3e2:	90 e0       	ldi	r25, 0x00	; 0
     3e4:	25 e3       	ldi	r18, 0x35	; 53
     3e6:	30 e0       	ldi	r19, 0x00	; 0
     3e8:	f9 01       	movw	r30, r18
     3ea:	20 81       	ld	r18, Z
     3ec:	2e 7f       	andi	r18, 0xFE	; 254
     3ee:	fc 01       	movw	r30, r24
     3f0:	20 83       	st	Z, r18

      Delay_ns(100);
     3f2:	00 c0       	rjmp	.+0      	; 0x3f4 <lcd_write+0x1e6>
      lcd_e_port_high();
     3f4:	0e 94 e7 00 	call	0x1ce	; 0x1ce <lcd_e_port_high>

      Delay_ns(500);
     3f8:	f2 e0       	ldi	r31, 0x02	; 2
     3fa:	fa 95       	dec	r31
     3fc:	f1 f7       	brne	.-4      	; 0x3fa <lcd_write+0x1ec>
     3fe:	00 c0       	rjmp	.+0      	; 0x400 <lcd_write+0x1f2>
      lcd_e_port_low();
     400:	0e 94 d7 00 	call	0x1ae	; 0x1ae <lcd_e_port_low>

      lcd_db7_port_high();                            // All Data Pins High (Inactive)
     404:	85 e3       	ldi	r24, 0x35	; 53
     406:	90 e0       	ldi	r25, 0x00	; 0
     408:	25 e3       	ldi	r18, 0x35	; 53
     40a:	30 e0       	ldi	r19, 0x00	; 0
     40c:	f9 01       	movw	r30, r18
     40e:	20 81       	ld	r18, Z
     410:	28 60       	ori	r18, 0x08	; 8
     412:	fc 01       	movw	r30, r24
     414:	20 83       	st	Z, r18
      lcd_db6_port_high();
     416:	85 e3       	ldi	r24, 0x35	; 53
     418:	90 e0       	ldi	r25, 0x00	; 0
     41a:	25 e3       	ldi	r18, 0x35	; 53
     41c:	30 e0       	ldi	r19, 0x00	; 0
     41e:	f9 01       	movw	r30, r18
     420:	20 81       	ld	r18, Z
     422:	24 60       	ori	r18, 0x04	; 4
     424:	fc 01       	movw	r30, r24
     426:	20 83       	st	Z, r18
      lcd_db5_port_high();
     428:	85 e3       	ldi	r24, 0x35	; 53
     42a:	90 e0       	ldi	r25, 0x00	; 0
     42c:	25 e3       	ldi	r18, 0x35	; 53
     42e:	30 e0       	ldi	r19, 0x00	; 0
     430:	f9 01       	movw	r30, r18
     432:	20 81       	ld	r18, Z
     434:	22 60       	ori	r18, 0x02	; 2
     436:	fc 01       	movw	r30, r24
     438:	20 83       	st	Z, r18
      lcd_db4_port_high();
     43a:	85 e3       	ldi	r24, 0x35	; 53
     43c:	90 e0       	ldi	r25, 0x00	; 0
     43e:	25 e3       	ldi	r18, 0x35	; 53
     440:	30 e0       	ldi	r19, 0x00	; 0
     442:	f9 01       	movw	r30, r18
     444:	20 81       	ld	r18, Z
     446:	21 60       	ori	r18, 0x01	; 1
     448:	fc 01       	movw	r30, r24
     44a:	20 83       	st	Z, r18
      lcd_db1_port_high();
      lcd_db0_port_high();
    #endif

    #if (WAIT_MODE==0 || RW_LINE_IMPLEMENTED==0)
      if (!rs && data<=((1<<LCD_CLR) | (1<<LCD_HOME))) // Is command clrscr or home?
     44c:	8a 81       	ldd	r24, Y+2	; 0x02
     44e:	88 23       	and	r24, r24
     450:	51 f4       	brne	.+20     	; 0x466 <__stack+0x7>
     452:	89 81       	ldd	r24, Y+1	; 0x01
     454:	84 30       	cpi	r24, 0x04	; 4
     456:	38 f4       	brcc	.+14     	; 0x466 <__stack+0x7>
        Delay_us(1640);
     458:	8f e9       	ldi	r24, 0x9F	; 159
     45a:	99 e1       	ldi	r25, 0x19	; 25
     45c:	01 97       	sbiw	r24, 0x01	; 1
     45e:	f1 f7       	brne	.-4      	; 0x45c <lcd_write+0x24e>
     460:	00 c0       	rjmp	.+0      	; 0x462 <__stack+0x3>
     462:	00 00       	nop
     464:	04 c0       	rjmp	.+8      	; 0x46e <__stack+0xf>
      else Delay_us(40);
     466:	95 ed       	ldi	r25, 0xD5	; 213
     468:	9a 95       	dec	r25
     46a:	f1 f7       	brne	.-4      	; 0x468 <__stack+0x9>
     46c:	00 00       	nop
    #endif
  }
     46e:	0f 90       	pop	r0
     470:	0f 90       	pop	r0
     472:	df 91       	pop	r29
     474:	cf 91       	pop	r28
     476:	08 95       	ret

00000478 <lcd_command>:
Send LCD controller instruction command
Input:   instruction to send to LCD controller, see HD44780 data sheet
Returns: none
*************************************************************************/
void lcd_command(uint8_t cmd)
  {
     478:	cf 93       	push	r28
     47a:	df 93       	push	r29
     47c:	1f 92       	push	r1
     47e:	cd b7       	in	r28, 0x3d	; 61
     480:	de b7       	in	r29, 0x3e	; 62
     482:	89 83       	std	Y+1, r24	; 0x01
    lcd_write(cmd,0);
     484:	60 e0       	ldi	r22, 0x00	; 0
     486:	89 81       	ldd	r24, Y+1	; 0x01
     488:	0e 94 07 01 	call	0x20e	; 0x20e <lcd_write>
  }
     48c:	0f 90       	pop	r0
     48e:	df 91       	pop	r29
     490:	cf 91       	pop	r28
     492:	08 95       	ret

00000494 <lcd_goto>:
Set cursor to specified position
Input:    pos position
Returns:  none
*************************************************************************/
void lcd_goto(uint8_t pos)
  {
     494:	cf 93       	push	r28
     496:	df 93       	push	r29
     498:	1f 92       	push	r1
     49a:	cd b7       	in	r28, 0x3d	; 61
     49c:	de b7       	in	r29, 0x3e	; 62
     49e:	89 83       	std	Y+1, r24	; 0x01
    lcd_command((1<<LCD_DDRAM)+pos);
     4a0:	89 81       	ldd	r24, Y+1	; 0x01
     4a2:	80 58       	subi	r24, 0x80	; 128
     4a4:	0e 94 3c 02 	call	0x478	; 0x478 <lcd_command>
  }
     4a8:	0f 90       	pop	r0
     4aa:	df 91       	pop	r29
     4ac:	cf 91       	pop	r28
     4ae:	08 95       	ret

000004b0 <lcd_clrscr>:
Clear screen
Input:    none
Returns:  none
*************************************************************************/
void lcd_clrscr()
  {
     4b0:	cf 93       	push	r28
     4b2:	df 93       	push	r29
     4b4:	cd b7       	in	r28, 0x3d	; 61
     4b6:	de b7       	in	r29, 0x3e	; 62
    lcd_command(1<<LCD_CLR);
     4b8:	81 e0       	ldi	r24, 0x01	; 1
     4ba:	0e 94 3c 02 	call	0x478	; 0x478 <lcd_command>
  }
     4be:	df 91       	pop	r29
     4c0:	cf 91       	pop	r28
     4c2:	08 95       	ret

000004c4 <lcd_putc>:
Display character
Input:    character to be displayed
Returns:  none
*************************************************************************/
void lcd_putc(char c)
  {
     4c4:	cf 93       	push	r28
     4c6:	df 93       	push	r29
     4c8:	1f 92       	push	r1
     4ca:	cd b7       	in	r28, 0x3d	; 61
     4cc:	de b7       	in	r29, 0x3e	; 62
     4ce:	89 83       	std	Y+1, r24	; 0x01
    lcd_write(c,1);
     4d0:	61 e0       	ldi	r22, 0x01	; 1
     4d2:	89 81       	ldd	r24, Y+1	; 0x01
     4d4:	0e 94 07 01 	call	0x20e	; 0x20e <lcd_write>
  }
     4d8:	0f 90       	pop	r0
     4da:	df 91       	pop	r29
     4dc:	cf 91       	pop	r28
     4de:	08 95       	ret

000004e0 <lcd_puts>:
Display string
Input:    string to be displayed
Returns:  none
*************************************************************************/
void lcd_puts(const char *s)
  {
     4e0:	1f 93       	push	r17
     4e2:	cf 93       	push	r28
     4e4:	df 93       	push	r29
     4e6:	00 d0       	rcall	.+0      	; 0x4e8 <lcd_puts+0x8>
     4e8:	cd b7       	in	r28, 0x3d	; 61
     4ea:	de b7       	in	r29, 0x3e	; 62
     4ec:	9a 83       	std	Y+2, r25	; 0x02
     4ee:	89 83       	std	Y+1, r24	; 0x01
    register char c;

    while ((c=*s++)) 
     4f0:	03 c0       	rjmp	.+6      	; 0x4f8 <lcd_puts+0x18>
      lcd_putc(c);
     4f2:	81 2f       	mov	r24, r17
     4f4:	0e 94 62 02 	call	0x4c4	; 0x4c4 <lcd_putc>
*************************************************************************/
void lcd_puts(const char *s)
  {
    register char c;

    while ((c=*s++)) 
     4f8:	89 81       	ldd	r24, Y+1	; 0x01
     4fa:	9a 81       	ldd	r25, Y+2	; 0x02
     4fc:	9c 01       	movw	r18, r24
     4fe:	2f 5f       	subi	r18, 0xFF	; 255
     500:	3f 4f       	sbci	r19, 0xFF	; 255
     502:	3a 83       	std	Y+2, r19	; 0x02
     504:	29 83       	std	Y+1, r18	; 0x01
     506:	fc 01       	movw	r30, r24
     508:	10 81       	ld	r17, Z
     50a:	11 23       	and	r17, r17
     50c:	91 f7       	brne	.-28     	; 0x4f2 <lcd_puts+0x12>
      lcd_putc(c);
  }
     50e:	0f 90       	pop	r0
     510:	0f 90       	pop	r0
     512:	df 91       	pop	r29
     514:	cf 91       	pop	r28
     516:	1f 91       	pop	r17
     518:	08 95       	ret

0000051a <lcd_init>:
Initialize display
Input:    none
Returns:  none
*************************************************************************/
void lcd_init()
  {
     51a:	cf 93       	push	r28
     51c:	df 93       	push	r29
     51e:	cd b7       	in	r28, 0x3d	; 61
     520:	de b7       	in	r29, 0x3e	; 62
    //Set All Pins as Output
    lcd_e_ddr_high();
     522:	0e 94 f7 00 	call	0x1ee	; 0x1ee <lcd_e_ddr_high>
    lcd_rs_ddr_high();
     526:	84 e3       	ldi	r24, 0x34	; 52
     528:	90 e0       	ldi	r25, 0x00	; 0
     52a:	24 e3       	ldi	r18, 0x34	; 52
     52c:	30 e0       	ldi	r19, 0x00	; 0
     52e:	f9 01       	movw	r30, r18
     530:	20 81       	ld	r18, Z
     532:	20 61       	ori	r18, 0x10	; 16
     534:	fc 01       	movw	r30, r24
     536:	20 83       	st	Z, r18
    #if RW_LINE_IMPLEMENTED==1
      lcd_rw_ddr_high();
    #endif
    lcd_db7_ddr_high();
     538:	84 e3       	ldi	r24, 0x34	; 52
     53a:	90 e0       	ldi	r25, 0x00	; 0
     53c:	24 e3       	ldi	r18, 0x34	; 52
     53e:	30 e0       	ldi	r19, 0x00	; 0
     540:	f9 01       	movw	r30, r18
     542:	20 81       	ld	r18, Z
     544:	28 60       	ori	r18, 0x08	; 8
     546:	fc 01       	movw	r30, r24
     548:	20 83       	st	Z, r18
    lcd_db6_ddr_high();
     54a:	84 e3       	ldi	r24, 0x34	; 52
     54c:	90 e0       	ldi	r25, 0x00	; 0
     54e:	24 e3       	ldi	r18, 0x34	; 52
     550:	30 e0       	ldi	r19, 0x00	; 0
     552:	f9 01       	movw	r30, r18
     554:	20 81       	ld	r18, Z
     556:	24 60       	ori	r18, 0x04	; 4
     558:	fc 01       	movw	r30, r24
     55a:	20 83       	st	Z, r18
    lcd_db5_ddr_high();
     55c:	84 e3       	ldi	r24, 0x34	; 52
     55e:	90 e0       	ldi	r25, 0x00	; 0
     560:	24 e3       	ldi	r18, 0x34	; 52
     562:	30 e0       	ldi	r19, 0x00	; 0
     564:	f9 01       	movw	r30, r18
     566:	20 81       	ld	r18, Z
     568:	22 60       	ori	r18, 0x02	; 2
     56a:	fc 01       	movw	r30, r24
     56c:	20 83       	st	Z, r18
    lcd_db4_ddr_high();
     56e:	84 e3       	ldi	r24, 0x34	; 52
     570:	90 e0       	ldi	r25, 0x00	; 0
     572:	24 e3       	ldi	r18, 0x34	; 52
     574:	30 e0       	ldi	r19, 0x00	; 0
     576:	f9 01       	movw	r30, r18
     578:	20 81       	ld	r18, Z
     57a:	21 60       	ori	r18, 0x01	; 1
     57c:	fc 01       	movw	r30, r24
     57e:	20 83       	st	Z, r18
      lcd_db1_ddr_high();
      lcd_db0_ddr_high();
    #endif

    //Set All Control Lines Low
    lcd_e_port_low();
     580:	0e 94 d7 00 	call	0x1ae	; 0x1ae <lcd_e_port_low>
    lcd_rs_port_low();
     584:	85 e3       	ldi	r24, 0x35	; 53
     586:	90 e0       	ldi	r25, 0x00	; 0
     588:	25 e3       	ldi	r18, 0x35	; 53
     58a:	30 e0       	ldi	r19, 0x00	; 0
     58c:	f9 01       	movw	r30, r18
     58e:	20 81       	ld	r18, Z
     590:	2f 7e       	andi	r18, 0xEF	; 239
     592:	fc 01       	movw	r30, r24
     594:	20 83       	st	Z, r18
    #if RW_LINE_IMPLEMENTED==1
      lcd_rw_port_low();
    #endif

    //Set All Data Lines High
    lcd_db7_port_high();
     596:	85 e3       	ldi	r24, 0x35	; 53
     598:	90 e0       	ldi	r25, 0x00	; 0
     59a:	25 e3       	ldi	r18, 0x35	; 53
     59c:	30 e0       	ldi	r19, 0x00	; 0
     59e:	f9 01       	movw	r30, r18
     5a0:	20 81       	ld	r18, Z
     5a2:	28 60       	ori	r18, 0x08	; 8
     5a4:	fc 01       	movw	r30, r24
     5a6:	20 83       	st	Z, r18
    lcd_db6_port_high();
     5a8:	85 e3       	ldi	r24, 0x35	; 53
     5aa:	90 e0       	ldi	r25, 0x00	; 0
     5ac:	25 e3       	ldi	r18, 0x35	; 53
     5ae:	30 e0       	ldi	r19, 0x00	; 0
     5b0:	f9 01       	movw	r30, r18
     5b2:	20 81       	ld	r18, Z
     5b4:	24 60       	ori	r18, 0x04	; 4
     5b6:	fc 01       	movw	r30, r24
     5b8:	20 83       	st	Z, r18
    lcd_db5_port_high();
     5ba:	85 e3       	ldi	r24, 0x35	; 53
     5bc:	90 e0       	ldi	r25, 0x00	; 0
     5be:	25 e3       	ldi	r18, 0x35	; 53
     5c0:	30 e0       	ldi	r19, 0x00	; 0
     5c2:	f9 01       	movw	r30, r18
     5c4:	20 81       	ld	r18, Z
     5c6:	22 60       	ori	r18, 0x02	; 2
     5c8:	fc 01       	movw	r30, r24
     5ca:	20 83       	st	Z, r18
    lcd_db4_port_high();
     5cc:	85 e3       	ldi	r24, 0x35	; 53
     5ce:	90 e0       	ldi	r25, 0x00	; 0
     5d0:	25 e3       	ldi	r18, 0x35	; 53
     5d2:	30 e0       	ldi	r19, 0x00	; 0
     5d4:	f9 01       	movw	r30, r18
     5d6:	20 81       	ld	r18, Z
     5d8:	21 60       	ori	r18, 0x01	; 1
     5da:	fc 01       	movw	r30, r24
     5dc:	20 83       	st	Z, r18
      lcd_db1_port_high();
      lcd_db0_port_high();
    #endif

    //Startup Delay
    Delay_ms(DELAY_RESET);
     5de:	8f e5       	ldi	r24, 0x5F	; 95
     5e0:	9a ee       	ldi	r25, 0xEA	; 234
     5e2:	01 97       	sbiw	r24, 0x01	; 1
     5e4:	f1 f7       	brne	.-4      	; 0x5e2 <lcd_init+0xc8>
     5e6:	00 c0       	rjmp	.+0      	; 0x5e8 <lcd_init+0xce>
     5e8:	00 00       	nop

    //Initialize Display
    lcd_db7_port_low();
     5ea:	85 e3       	ldi	r24, 0x35	; 53
     5ec:	90 e0       	ldi	r25, 0x00	; 0
     5ee:	25 e3       	ldi	r18, 0x35	; 53
     5f0:	30 e0       	ldi	r19, 0x00	; 0
     5f2:	f9 01       	movw	r30, r18
     5f4:	20 81       	ld	r18, Z
     5f6:	27 7f       	andi	r18, 0xF7	; 247
     5f8:	fc 01       	movw	r30, r24
     5fa:	20 83       	st	Z, r18
    lcd_db6_port_low();
     5fc:	85 e3       	ldi	r24, 0x35	; 53
     5fe:	90 e0       	ldi	r25, 0x00	; 0
     600:	25 e3       	ldi	r18, 0x35	; 53
     602:	30 e0       	ldi	r19, 0x00	; 0
     604:	f9 01       	movw	r30, r18
     606:	20 81       	ld	r18, Z
     608:	2b 7f       	andi	r18, 0xFB	; 251
     60a:	fc 01       	movw	r30, r24
     60c:	20 83       	st	Z, r18
    Delay_ns(100);
     60e:	00 c0       	rjmp	.+0      	; 0x610 <lcd_init+0xf6>
    lcd_e_port_high();
     610:	0e 94 e7 00 	call	0x1ce	; 0x1ce <lcd_e_port_high>
    Delay_ns(500);
     614:	f2 e0       	ldi	r31, 0x02	; 2
     616:	fa 95       	dec	r31
     618:	f1 f7       	brne	.-4      	; 0x616 <lcd_init+0xfc>
     61a:	00 c0       	rjmp	.+0      	; 0x61c <lcd_init+0x102>
    lcd_e_port_low();
     61c:	0e 94 d7 00 	call	0x1ae	; 0x1ae <lcd_e_port_low>

    Delay_us(4100);
     620:	8f e0       	ldi	r24, 0x0F	; 15
     622:	90 e4       	ldi	r25, 0x40	; 64
     624:	01 97       	sbiw	r24, 0x01	; 1
     626:	f1 f7       	brne	.-4      	; 0x624 <lcd_init+0x10a>
     628:	00 c0       	rjmp	.+0      	; 0x62a <lcd_init+0x110>
     62a:	00 00       	nop

    lcd_e_port_high();
     62c:	0e 94 e7 00 	call	0x1ce	; 0x1ce <lcd_e_port_high>
    Delay_ns(500);
     630:	92 e0       	ldi	r25, 0x02	; 2
     632:	9a 95       	dec	r25
     634:	f1 f7       	brne	.-4      	; 0x632 <lcd_init+0x118>
     636:	00 c0       	rjmp	.+0      	; 0x638 <lcd_init+0x11e>
    lcd_e_port_low();
     638:	0e 94 d7 00 	call	0x1ae	; 0x1ae <lcd_e_port_low>

    Delay_us(100);
     63c:	ef e8       	ldi	r30, 0x8F	; 143
     63e:	f1 e0       	ldi	r31, 0x01	; 1
     640:	31 97       	sbiw	r30, 0x01	; 1
     642:	f1 f7       	brne	.-4      	; 0x640 <lcd_init+0x126>
     644:	00 c0       	rjmp	.+0      	; 0x646 <lcd_init+0x12c>
     646:	00 00       	nop

    lcd_e_port_high();
     648:	0e 94 e7 00 	call	0x1ce	; 0x1ce <lcd_e_port_high>
    Delay_ns(500);
     64c:	f2 e0       	ldi	r31, 0x02	; 2
     64e:	fa 95       	dec	r31
     650:	f1 f7       	brne	.-4      	; 0x64e <lcd_init+0x134>
     652:	00 c0       	rjmp	.+0      	; 0x654 <lcd_init+0x13a>
    lcd_e_port_low();
     654:	0e 94 d7 00 	call	0x1ae	; 0x1ae <lcd_e_port_low>

    Delay_us(40);
     658:	85 ed       	ldi	r24, 0xD5	; 213
     65a:	8a 95       	dec	r24
     65c:	f1 f7       	brne	.-4      	; 0x65a <lcd_init+0x140>
     65e:	00 00       	nop

    //Init differs between 4-bit and 8-bit from here
    #if (LCD_BITS==4)
      lcd_db4_port_low();
     660:	85 e3       	ldi	r24, 0x35	; 53
     662:	90 e0       	ldi	r25, 0x00	; 0
     664:	25 e3       	ldi	r18, 0x35	; 53
     666:	30 e0       	ldi	r19, 0x00	; 0
     668:	f9 01       	movw	r30, r18
     66a:	20 81       	ld	r18, Z
     66c:	2e 7f       	andi	r18, 0xFE	; 254
     66e:	fc 01       	movw	r30, r24
     670:	20 83       	st	Z, r18
      Delay_ns(100);
     672:	00 c0       	rjmp	.+0      	; 0x674 <lcd_init+0x15a>
      lcd_e_port_high();
     674:	0e 94 e7 00 	call	0x1ce	; 0x1ce <lcd_e_port_high>
      Delay_ns(500);
     678:	f2 e0       	ldi	r31, 0x02	; 2
     67a:	fa 95       	dec	r31
     67c:	f1 f7       	brne	.-4      	; 0x67a <lcd_init+0x160>
     67e:	00 c0       	rjmp	.+0      	; 0x680 <lcd_init+0x166>
      lcd_e_port_low();
     680:	0e 94 d7 00 	call	0x1ae	; 0x1ae <lcd_e_port_low>
      Delay_us(40);
     684:	85 ed       	ldi	r24, 0xD5	; 213
     686:	8a 95       	dec	r24
     688:	f1 f7       	brne	.-4      	; 0x686 <lcd_init+0x16c>
     68a:	00 00       	nop

      lcd_db4_port_low();
     68c:	85 e3       	ldi	r24, 0x35	; 53
     68e:	90 e0       	ldi	r25, 0x00	; 0
     690:	25 e3       	ldi	r18, 0x35	; 53
     692:	30 e0       	ldi	r19, 0x00	; 0
     694:	f9 01       	movw	r30, r18
     696:	20 81       	ld	r18, Z
     698:	2e 7f       	andi	r18, 0xFE	; 254
     69a:	fc 01       	movw	r30, r24
     69c:	20 83       	st	Z, r18
      Delay_ns(100);
     69e:	00 c0       	rjmp	.+0      	; 0x6a0 <lcd_init+0x186>
      lcd_e_port_high();
     6a0:	0e 94 e7 00 	call	0x1ce	; 0x1ce <lcd_e_port_high>
      Delay_ns(500);
     6a4:	f2 e0       	ldi	r31, 0x02	; 2
     6a6:	fa 95       	dec	r31
     6a8:	f1 f7       	brne	.-4      	; 0x6a6 <lcd_init+0x18c>
     6aa:	00 c0       	rjmp	.+0      	; 0x6ac <lcd_init+0x192>
      lcd_e_port_low();
     6ac:	0e 94 d7 00 	call	0x1ae	; 0x1ae <lcd_e_port_low>
      Delay_ns(500);
     6b0:	82 e0       	ldi	r24, 0x02	; 2
     6b2:	8a 95       	dec	r24
     6b4:	f1 f7       	brne	.-4      	; 0x6b2 <lcd_init+0x198>
     6b6:	00 c0       	rjmp	.+0      	; 0x6b8 <lcd_init+0x19e>

      #if (LCD_DISPLAYS==1)
        if (LCD_DISPLAY_LINES>1)
          lcd_db7_port_high();
     6b8:	85 e3       	ldi	r24, 0x35	; 53
     6ba:	90 e0       	ldi	r25, 0x00	; 0
     6bc:	25 e3       	ldi	r18, 0x35	; 53
     6be:	30 e0       	ldi	r19, 0x00	; 0
     6c0:	f9 01       	movw	r30, r18
     6c2:	20 81       	ld	r18, Z
     6c4:	28 60       	ori	r18, 0x08	; 8
     6c6:	fc 01       	movw	r30, r24
     6c8:	20 83       	st	Z, r18
          }
        if (c>1)
          lcd_db7_port_high();
      #endif

      Delay_ns(100);
     6ca:	00 c0       	rjmp	.+0      	; 0x6cc <lcd_init+0x1b2>
      lcd_e_port_high();
     6cc:	0e 94 e7 00 	call	0x1ce	; 0x1ce <lcd_e_port_high>
      Delay_ns(500);
     6d0:	f2 e0       	ldi	r31, 0x02	; 2
     6d2:	fa 95       	dec	r31
     6d4:	f1 f7       	brne	.-4      	; 0x6d2 <lcd_init+0x1b8>
     6d6:	00 c0       	rjmp	.+0      	; 0x6d8 <lcd_init+0x1be>
      lcd_e_port_low();
     6d8:	0e 94 d7 00 	call	0x1ae	; 0x1ae <lcd_e_port_low>
      Delay_us(40);
     6dc:	85 ed       	ldi	r24, 0xD5	; 213
     6de:	8a 95       	dec	r24
     6e0:	f1 f7       	brne	.-4      	; 0x6de <lcd_init+0x1c4>
     6e2:	00 00       	nop
      lcd_e_port_low();
      Delay_us(40);
    #endif

    //Display Off
    lcd_command(_BV(LCD_DISPLAYMODE));
     6e4:	88 e0       	ldi	r24, 0x08	; 8
     6e6:	0e 94 3c 02 	call	0x478	; 0x478 <lcd_command>

    //Display Clear
    lcd_clrscr();
     6ea:	0e 94 58 02 	call	0x4b0	; 0x4b0 <lcd_clrscr>

    //Entry Mode Set
    lcd_command(_BV(LCD_ENTRY_MODE) | _BV(LCD_ENTRY_INC));
     6ee:	86 e0       	ldi	r24, 0x06	; 6
     6f0:	0e 94 3c 02 	call	0x478	; 0x478 <lcd_command>

    //Display On
    lcd_command(_BV(LCD_DISPLAYMODE) | _BV(LCD_DISPLAYMODE_ON));
     6f4:	8c e0       	ldi	r24, 0x0C	; 12
     6f6:	0e 94 3c 02 	call	0x478	; 0x478 <lcd_command>
  }
     6fa:	df 91       	pop	r29
     6fc:	cf 91       	pop	r28
     6fe:	08 95       	ret

00000700 <__vector_3>:
Button pwm_mode_select = {0,70};
Encoder enc = {0,0,0};

/* Диспетчер */
ISR(TIMER2_COMP_vect)
{
     700:	1f 92       	push	r1
     702:	0f 92       	push	r0
     704:	0f b6       	in	r0, 0x3f	; 63
     706:	0f 92       	push	r0
     708:	11 24       	eor	r1, r1
     70a:	2f 93       	push	r18
     70c:	3f 93       	push	r19
     70e:	4f 93       	push	r20
     710:	5f 93       	push	r21
     712:	6f 93       	push	r22
     714:	7f 93       	push	r23
     716:	8f 93       	push	r24
     718:	9f 93       	push	r25
     71a:	af 93       	push	r26
     71c:	bf 93       	push	r27
     71e:	ef 93       	push	r30
     720:	ff 93       	push	r31
     722:	cf 93       	push	r28
     724:	df 93       	push	r29
     726:	1f 92       	push	r1
     728:	cd b7       	in	r28, 0x3d	; 61
     72a:	de b7       	in	r29, 0x3e	; 62
	TCNT0 = 0;
     72c:	12 be       	out	0x32, r1	; 50
	//делитель clk
	if(push_button(PIND, 6, freq_div))
     72e:	80 b3       	in	r24, 0x10	; 16
     730:	44 e6       	ldi	r20, 0x64	; 100
     732:	50 e0       	ldi	r21, 0x00	; 0
     734:	66 e0       	ldi	r22, 0x06	; 6
     736:	0e 94 e1 04 	call	0x9c2	; 0x9c2 <_Z11push_buttonhhR6Button>
     73a:	88 23       	and	r24, r24
     73c:	01 f1       	breq	.+64     	; 0x77e <__vector_3+0x7e>
	{
		if(++state.prescaller > 4)
     73e:	80 91 a3 00 	lds	r24, 0x00A3
     742:	8f 5f       	subi	r24, 0xFF	; 255
     744:	87 70       	andi	r24, 0x07	; 7
     746:	28 2f       	mov	r18, r24
     748:	30 e0       	ldi	r19, 0x00	; 0
     74a:	25 30       	cpi	r18, 0x05	; 5
     74c:	31 05       	cpc	r19, r1
     74e:	3c f4       	brge	.+14     	; 0x75e <__vector_3+0x5e>
     750:	e3 ea       	ldi	r30, 0xA3	; 163
     752:	f0 e0       	ldi	r31, 0x00	; 0
     754:	90 81       	ld	r25, Z
     756:	98 7f       	andi	r25, 0xF8	; 248
     758:	89 2b       	or	r24, r25
     75a:	80 83       	st	Z, r24
     75c:	05 c0       	rjmp	.+10     	; 0x768 <__vector_3+0x68>
			state.prescaller = 0;
     75e:	e3 ea       	ldi	r30, 0xA3	; 163
     760:	f0 e0       	ldi	r31, 0x00	; 0
     762:	80 81       	ld	r24, Z
     764:	88 7f       	andi	r24, 0xF8	; 248
     766:	80 83       	st	Z, r24
		pwm.set_prescaler(state.prescaller);
     768:	80 91 a3 00 	lds	r24, 0x00A3
     76c:	87 70       	andi	r24, 0x07	; 7
     76e:	89 83       	std	Y+1, r24	; 0x01
     770:	be 01       	movw	r22, r28
     772:	6f 5f       	subi	r22, 0xFF	; 255
     774:	7f 4f       	sbci	r23, 0xFF	; 255
     776:	86 ea       	ldi	r24, 0xA6	; 166
     778:	90 e0       	ldi	r25, 0x00	; 0
     77a:	0e 94 40 05 	call	0xa80	; 0xa80 <_ZN3PWM13set_prescalerERKh>
	}
	
	//коэфф. инкремента 
	if (push_button(PIND, 3, mult_div))
     77e:	80 b3       	in	r24, 0x10	; 16
     780:	42 e6       	ldi	r20, 0x62	; 98
     782:	50 e0       	ldi	r21, 0x00	; 0
     784:	63 e0       	ldi	r22, 0x03	; 3
     786:	0e 94 e1 04 	call	0x9c2	; 0x9c2 <_Z11push_buttonhhR6Button>
     78a:	88 23       	and	r24, r24
     78c:	09 f4       	brne	.+2      	; 0x790 <__vector_3+0x90>
     78e:	42 c0       	rjmp	.+132    	; 0x814 <__vector_3+0x114>
	{
		if(++state.coeff > 3)
     790:	e3 ea       	ldi	r30, 0xA3	; 163
     792:	f0 e0       	ldi	r31, 0x00	; 0
     794:	90 81       	ld	r25, Z
     796:	89 2f       	mov	r24, r25
     798:	86 95       	lsr	r24
     79a:	86 95       	lsr	r24
     79c:	86 95       	lsr	r24
     79e:	8f 5f       	subi	r24, 0xFF	; 255
     7a0:	87 70       	andi	r24, 0x07	; 7
     7a2:	28 2f       	mov	r18, r24
     7a4:	22 0f       	add	r18, r18
     7a6:	22 0f       	add	r18, r18
     7a8:	22 0f       	add	r18, r18
     7aa:	97 7c       	andi	r25, 0xC7	; 199
     7ac:	92 2b       	or	r25, r18
     7ae:	90 83       	st	Z, r25
     7b0:	90 e0       	ldi	r25, 0x00	; 0
     7b2:	84 30       	cpi	r24, 0x04	; 4
     7b4:	91 05       	cpc	r25, r1
     7b6:	24 f0       	brlt	.+8      	; 0x7c0 <__vector_3+0xc0>
			state.coeff = 0;
     7b8:	80 81       	ld	r24, Z
     7ba:	87 7c       	andi	r24, 0xC7	; 199
     7bc:	80 83       	st	Z, r24
     7be:	0d c0       	rjmp	.+26     	; 0x7da <__vector_3+0xda>
		switch(state.coeff)
     7c0:	81 30       	cpi	r24, 0x01	; 1
     7c2:	91 05       	cpc	r25, r1
     7c4:	89 f0       	breq	.+34     	; 0x7e8 <__vector_3+0xe8>
     7c6:	1c f4       	brge	.+6      	; 0x7ce <__vector_3+0xce>
     7c8:	89 2b       	or	r24, r25
     7ca:	11 f5       	brne	.+68     	; 0x810 <__vector_3+0x110>
     7cc:	06 c0       	rjmp	.+12     	; 0x7da <__vector_3+0xda>
     7ce:	82 30       	cpi	r24, 0x02	; 2
     7d0:	91 05       	cpc	r25, r1
     7d2:	89 f0       	breq	.+34     	; 0x7f6 <__vector_3+0xf6>
     7d4:	03 97       	sbiw	r24, 0x03	; 3
     7d6:	b1 f0       	breq	.+44     	; 0x804 <__vector_3+0x104>
     7d8:	1b c0       	rjmp	.+54     	; 0x810 <__vector_3+0x110>
		{
			case 0: coeff = 1;		break;
     7da:	81 e0       	ldi	r24, 0x01	; 1
     7dc:	90 e0       	ldi	r25, 0x00	; 0
     7de:	90 93 67 00 	sts	0x0067, r25
     7e2:	80 93 66 00 	sts	0x0066, r24
     7e6:	14 c0       	rjmp	.+40     	; 0x810 <__vector_3+0x110>
			case 1: coeff = 10;		break;
     7e8:	8a e0       	ldi	r24, 0x0A	; 10
     7ea:	90 e0       	ldi	r25, 0x00	; 0
     7ec:	90 93 67 00 	sts	0x0067, r25
     7f0:	80 93 66 00 	sts	0x0066, r24
     7f4:	0d c0       	rjmp	.+26     	; 0x810 <__vector_3+0x110>
			case 2: coeff = 100;	break;
     7f6:	84 e6       	ldi	r24, 0x64	; 100
     7f8:	90 e0       	ldi	r25, 0x00	; 0
     7fa:	90 93 67 00 	sts	0x0067, r25
     7fe:	80 93 66 00 	sts	0x0066, r24
     802:	06 c0       	rjmp	.+12     	; 0x810 <__vector_3+0x110>
			case 3: coeff = 1000;	break;
     804:	88 ee       	ldi	r24, 0xE8	; 232
     806:	93 e0       	ldi	r25, 0x03	; 3
     808:	90 93 67 00 	sts	0x0067, r25
     80c:	80 93 66 00 	sts	0x0066, r24
		}
		refresh_lcd = false;
     810:	10 92 a5 00 	sts	0x00A5, r1
	}
	
	//выбор режима ШИМ
	if(push_button(PIND, 2, pwm_mode_select))
     814:	80 b3       	in	r24, 0x10	; 16
     816:	40 e6       	ldi	r20, 0x60	; 96
     818:	50 e0       	ldi	r21, 0x00	; 0
     81a:	62 e0       	ldi	r22, 0x02	; 2
     81c:	0e 94 e1 04 	call	0x9c2	; 0x9c2 <_Z11push_buttonhhR6Button>
     820:	88 23       	and	r24, r24
     822:	09 f4       	brne	.+2      	; 0x826 <__vector_3+0x126>
     824:	49 c0       	rjmp	.+146    	; 0x8b8 <__vector_3+0x1b8>
	{
		if(++state.pwm_mode > 2)
     826:	a3 ea       	ldi	r26, 0xA3	; 163
     828:	b0 e0       	ldi	r27, 0x00	; 0
     82a:	3c 91       	ld	r19, X
     82c:	93 2f       	mov	r25, r19
     82e:	92 95       	swap	r25
     830:	96 95       	lsr	r25
     832:	96 95       	lsr	r25
     834:	93 70       	andi	r25, 0x03	; 3
     836:	e4 ea       	ldi	r30, 0xA4	; 164
     838:	f0 e0       	ldi	r31, 0x00	; 0
     83a:	20 81       	ld	r18, Z
     83c:	82 2f       	mov	r24, r18
     83e:	81 70       	andi	r24, 0x01	; 1
     840:	88 0f       	add	r24, r24
     842:	88 0f       	add	r24, r24
     844:	89 2b       	or	r24, r25
     846:	8f 5f       	subi	r24, 0xFF	; 255
     848:	87 70       	andi	r24, 0x07	; 7
     84a:	98 2f       	mov	r25, r24
     84c:	92 95       	swap	r25
     84e:	99 0f       	add	r25, r25
     850:	99 0f       	add	r25, r25
     852:	90 7c       	andi	r25, 0xC0	; 192
     854:	3f 73       	andi	r19, 0x3F	; 63
     856:	39 2b       	or	r19, r25
     858:	3c 93       	st	X, r19
     85a:	98 2f       	mov	r25, r24
     85c:	96 95       	lsr	r25
     85e:	96 95       	lsr	r25
     860:	2e 7f       	andi	r18, 0xFE	; 254
     862:	29 2b       	or	r18, r25
     864:	20 83       	st	Z, r18
     866:	90 e0       	ldi	r25, 0x00	; 0
     868:	83 30       	cpi	r24, 0x03	; 3
     86a:	91 05       	cpc	r25, r1
     86c:	54 f0       	brlt	.+20     	; 0x882 <__vector_3+0x182>
			state.pwm_mode = 0;
     86e:	fd 01       	movw	r30, r26
     870:	80 81       	ld	r24, Z
     872:	8f 73       	andi	r24, 0x3F	; 63
     874:	80 83       	st	Z, r24
     876:	e4 ea       	ldi	r30, 0xA4	; 164
     878:	f0 e0       	ldi	r31, 0x00	; 0
     87a:	80 81       	ld	r24, Z
     87c:	8e 7f       	andi	r24, 0xFE	; 254
     87e:	80 83       	st	Z, r24
     880:	08 c0       	rjmp	.+16     	; 0x892 <__vector_3+0x192>
		switch(state.pwm_mode)
     882:	81 30       	cpi	r24, 0x01	; 1
     884:	91 05       	cpc	r25, r1
     886:	59 f0       	breq	.+22     	; 0x89e <__vector_3+0x19e>
     888:	82 30       	cpi	r24, 0x02	; 2
     88a:	91 05       	cpc	r25, r1
     88c:	71 f0       	breq	.+28     	; 0x8aa <__vector_3+0x1aa>
     88e:	89 2b       	or	r24, r25
     890:	89 f4       	brne	.+34     	; 0x8b4 <__vector_3+0x1b4>
		{
			case 0: pwm.set_mode_pwm(PWM::CTC);				break;
     892:	64 e0       	ldi	r22, 0x04	; 4
     894:	86 ea       	ldi	r24, 0xA6	; 166
     896:	90 e0       	ldi	r25, 0x00	; 0
     898:	0e 94 9d 05 	call	0xb3a	; 0xb3a <_ZN3PWM12set_mode_pwmENS_5_MODEE>
     89c:	0b c0       	rjmp	.+22     	; 0x8b4 <__vector_3+0x1b4>
			case 1: pwm.set_mode_pwm(PWM::FAST_PWM);		break;
     89e:	61 e0       	ldi	r22, 0x01	; 1
     8a0:	86 ea       	ldi	r24, 0xA6	; 166
     8a2:	90 e0       	ldi	r25, 0x00	; 0
     8a4:	0e 94 9d 05 	call	0xb3a	; 0xb3a <_ZN3PWM12set_mode_pwmENS_5_MODEE>
     8a8:	05 c0       	rjmp	.+10     	; 0x8b4 <__vector_3+0x1b4>
			case 2: pwm.set_mode_pwm(PWM::PHASE_CORRECT);	break;
     8aa:	62 e0       	ldi	r22, 0x02	; 2
     8ac:	86 ea       	ldi	r24, 0xA6	; 166
     8ae:	90 e0       	ldi	r25, 0x00	; 0
     8b0:	0e 94 9d 05 	call	0xb3a	; 0xb3a <_ZN3PWM12set_mode_pwmENS_5_MODEE>
			//case 3: pwm.set_mode_pwm(PWM::PHASE_FREQ_CORRECT);	lcd_puts(" "); lcd_goto(4);	break;
		}
		refresh_lcd = false;
     8b4:	10 92 a5 00 	sts	0x00A5, r1
	}
	
	//проверка энкодера
	if((!(PINA & BIT1) || !(PINA & BIT2)) || (enc.detect == true))
     8b8:	c9 9b       	sbis	0x19, 1	; 25
     8ba:	07 c0       	rjmp	.+14     	; 0x8ca <__vector_3+0x1ca>
     8bc:	ca 9b       	sbis	0x19, 2	; 25
     8be:	05 c0       	rjmp	.+10     	; 0x8ca <__vector_3+0x1ca>
     8c0:	80 91 a0 00 	lds	r24, 0x00A0
     8c4:	88 23       	and	r24, r24
     8c6:	09 f4       	brne	.+2      	; 0x8ca <__vector_3+0x1ca>
     8c8:	48 c0       	rjmp	.+144    	; 0x95a <__vector_3+0x25a>
	{
		if(enc.init == false)
     8ca:	80 91 a1 00 	lds	r24, 0x00A1
     8ce:	81 11       	cpse	r24, r1
     8d0:	30 c0       	rjmp	.+96     	; 0x932 <__vector_3+0x232>
		{
			enc.detect = true;
     8d2:	81 e0       	ldi	r24, 0x01	; 1
     8d4:	80 93 a0 00 	sts	0x00A0, r24
			uint16_t tmp = OCR1AH<<8 | OCR1AL;
     8d8:	2b b5       	in	r18, 0x2b	; 43
     8da:	8a b5       	in	r24, 0x2a	; 42
     8dc:	90 e0       	ldi	r25, 0x00	; 0
     8de:	92 2b       	or	r25, r18
			
			if(PINA & BIT1)
     8e0:	c9 9b       	sbis	0x19, 1	; 25
     8e2:	13 c0       	rjmp	.+38     	; 0x90a <__vector_3+0x20a>
			{
				if(coeff <= 0xFFFF - tmp)
     8e4:	20 91 66 00 	lds	r18, 0x0066
     8e8:	30 91 67 00 	lds	r19, 0x0067
     8ec:	ac 01       	movw	r20, r24
     8ee:	40 95       	com	r20
     8f0:	50 95       	com	r21
     8f2:	42 17       	cp	r20, r18
     8f4:	53 07       	cpc	r21, r19
     8f6:	28 f0       	brcs	.+10     	; 0x902 <__vector_3+0x202>
				{
					tmp += coeff;
     8f8:	82 0f       	add	r24, r18
     8fa:	93 1f       	adc	r25, r19
					OCR1AH = (uint8_t)(tmp>>8);
     8fc:	9b bd       	out	0x2b, r25	; 43
					OCR1AL = (uint8_t)tmp;
     8fe:	8a bd       	out	0x2a, r24	; 42
     900:	12 c0       	rjmp	.+36     	; 0x926 <__vector_3+0x226>
				}
				else
				{
					OCR1AH = 0xFF;
     902:	8f ef       	ldi	r24, 0xFF	; 255
     904:	8b bd       	out	0x2b, r24	; 43
					OCR1AL = 0xFF;
     906:	8a bd       	out	0x2a, r24	; 42
     908:	0e c0       	rjmp	.+28     	; 0x926 <__vector_3+0x226>
				}
			}
			else
			{	
				if(tmp >= coeff)
     90a:	20 91 66 00 	lds	r18, 0x0066
     90e:	30 91 67 00 	lds	r19, 0x0067
     912:	82 17       	cp	r24, r18
     914:	93 07       	cpc	r25, r19
     916:	28 f0       	brcs	.+10     	; 0x922 <__vector_3+0x222>
				{
					tmp -= coeff;
     918:	82 1b       	sub	r24, r18
     91a:	93 0b       	sbc	r25, r19
					OCR1AH = (uint8_t)(tmp>>8);
     91c:	9b bd       	out	0x2b, r25	; 43
					OCR1AL = (uint8_t)tmp;
     91e:	8a bd       	out	0x2a, r24	; 42
     920:	02 c0       	rjmp	.+4      	; 0x926 <__vector_3+0x226>
				}
				else
				{
					OCR1AH = 0x00;
     922:	1b bc       	out	0x2b, r1	; 43
					OCR1AL = 0x00;
     924:	1a bc       	out	0x2a, r1	; 42
				}
			}
										
			enc.delay = 10;
     926:	e0 ea       	ldi	r30, 0xA0	; 160
     928:	f0 e0       	ldi	r31, 0x00	; 0
     92a:	8a e0       	ldi	r24, 0x0A	; 10
     92c:	82 83       	std	Z+2, r24	; 0x02
			enc.init = true;
     92e:	81 e0       	ldi	r24, 0x01	; 1
     930:	81 83       	std	Z+1, r24	; 0x01
		}
		if((PINA & BIT1) && (PINA & BIT2) && !(enc.delay ? --enc.delay : 0))
     932:	c9 9b       	sbis	0x19, 1	; 25
     934:	12 c0       	rjmp	.+36     	; 0x95a <__vector_3+0x25a>
     936:	ca 9b       	sbis	0x19, 2	; 25
     938:	10 c0       	rjmp	.+32     	; 0x95a <__vector_3+0x25a>
     93a:	80 91 a2 00 	lds	r24, 0x00A2
     93e:	88 23       	and	r24, r24
     940:	29 f0       	breq	.+10     	; 0x94c <__vector_3+0x24c>
     942:	81 50       	subi	r24, 0x01	; 1
     944:	80 93 a2 00 	sts	0x00A2, r24
     948:	81 11       	cpse	r24, r1
     94a:	07 c0       	rjmp	.+14     	; 0x95a <__vector_3+0x25a>
		{
			enc.detect = false;
     94c:	e0 ea       	ldi	r30, 0xA0	; 160
     94e:	f0 e0       	ldi	r31, 0x00	; 0
     950:	10 82       	st	Z, r1
			enc.init = false;
     952:	11 82       	std	Z+1, r1	; 0x01
			refresh_lcd = false;
     954:	10 92 a5 00 	sts	0x00A5, r1
     958:	04 c0       	rjmp	.+8      	; 0x962 <__vector_3+0x262>
		}
	}
	
	
	//1 раз в 100 мс
	if((refresh_lcd == false) && (!tim_150ms--))
     95a:	80 91 a5 00 	lds	r24, 0x00A5
     95e:	81 11       	cpse	r24, r1
     960:	0f c0       	rjmp	.+30     	; 0x980 <__vector_3+0x280>
     962:	80 91 68 00 	lds	r24, 0x0068
     966:	9f ef       	ldi	r25, 0xFF	; 255
     968:	98 0f       	add	r25, r24
     96a:	90 93 68 00 	sts	0x0068, r25
     96e:	81 11       	cpse	r24, r1
     970:	07 c0       	rjmp	.+14     	; 0x980 <__vector_3+0x280>
	{
		refresh_lcd = screen_refresh();		//обновление lcd
     972:	0e 94 d8 05 	call	0xbb0	; 0xbb0 <_Z14screen_refreshv>
     976:	80 93 a5 00 	sts	0x00A5, r24
		tim_150ms = 150;		
     97a:	86 e9       	ldi	r24, 0x96	; 150
     97c:	80 93 68 00 	sts	0x0068, r24
	}
	

	// запуск преобразований ADC
	if(!(ADCSRA & 1<<ADSC))
     980:	86 b1       	in	r24, 0x06	; 6
	{	
								
	}
	ADCSRA |= 1<<ADSC;					
     982:	36 9a       	sbi	0x06, 6	; 6
}
     984:	0f 90       	pop	r0
     986:	df 91       	pop	r29
     988:	cf 91       	pop	r28
     98a:	ff 91       	pop	r31
     98c:	ef 91       	pop	r30
     98e:	bf 91       	pop	r27
     990:	af 91       	pop	r26
     992:	9f 91       	pop	r25
     994:	8f 91       	pop	r24
     996:	7f 91       	pop	r23
     998:	6f 91       	pop	r22
     99a:	5f 91       	pop	r21
     99c:	4f 91       	pop	r20
     99e:	3f 91       	pop	r19
     9a0:	2f 91       	pop	r18
     9a2:	0f 90       	pop	r0
     9a4:	0f be       	out	0x3f, r0	; 63
     9a6:	0f 90       	pop	r0
     9a8:	1f 90       	pop	r1
     9aa:	18 95       	reti

000009ac <main>:
#include "Main.h"
PWM pwm;

int main( void )
{
	peiph_init();
     9ac:	0e 94 09 05 	call	0xa12	; 0xa12 <_Z10peiph_initv>
	lcd_init();
     9b0:	0e 94 8d 02 	call	0x51a	; 0x51a <lcd_init>
	
	sei();
     9b4:	78 94       	sei
	
	pwm.set_mode_pwm(PWM::CTC);
     9b6:	64 e0       	ldi	r22, 0x04	; 4
     9b8:	86 ea       	ldi	r24, 0xA6	; 166
     9ba:	90 e0       	ldi	r25, 0x00	; 0
     9bc:	0e 94 9d 05 	call	0xb3a	; 0xb3a <_ZN3PWM12set_mode_pwmENS_5_MODEE>
#include "Main.h"
PWM pwm;

int main( void )
     9c0:	ff cf       	rjmp	.-2      	; 0x9c0 <main+0x14>

000009c2 <_Z11push_buttonhhR6Button>:
	}
}

bool push_button (const uint8_t PINX, const uint8_t pin_number, Button &but)
{
	if (!(PINX & 1<<pin_number))
     9c2:	90 e0       	ldi	r25, 0x00	; 0
     9c4:	02 c0       	rjmp	.+4      	; 0x9ca <_Z11push_buttonhhR6Button+0x8>
     9c6:	95 95       	asr	r25
     9c8:	87 95       	ror	r24
     9ca:	6a 95       	dec	r22
     9cc:	e2 f7       	brpl	.-8      	; 0x9c6 <_Z11push_buttonhhR6Button+0x4>
     9ce:	80 fd       	sbrc	r24, 0
     9d0:	05 c0       	rjmp	.+10     	; 0x9dc <_Z11push_buttonhhR6Button+0x1a>
		but.detect = true;
     9d2:	81 e0       	ldi	r24, 0x01	; 1
     9d4:	fa 01       	movw	r30, r20
     9d6:	80 83       	st	Z, r24
		{
			but.time = 70;
			but.detect = false;
			return true;
		}
	return false;
     9d8:	80 e0       	ldi	r24, 0x00	; 0
     9da:	08 95       	ret
bool push_button (const uint8_t PINX, const uint8_t pin_number, Button &but)
{
	if (!(PINX & 1<<pin_number))
		but.detect = true;
	else
		if ((but.detect == true) && !(but.time ? but.time-- : 0))
     9dc:	fa 01       	movw	r30, r20
     9de:	80 81       	ld	r24, Z
     9e0:	88 23       	and	r24, r24
     9e2:	59 f0       	breq	.+22     	; 0x9fa <_Z11push_buttonhhR6Button+0x38>
     9e4:	91 81       	ldd	r25, Z+1	; 0x01
     9e6:	99 23       	and	r25, r25
     9e8:	19 f0       	breq	.+6      	; 0x9f0 <_Z11push_buttonhhR6Button+0x2e>
     9ea:	91 50       	subi	r25, 0x01	; 1
     9ec:	91 83       	std	Z+1, r25	; 0x01
     9ee:	05 c0       	rjmp	.+10     	; 0x9fa <_Z11push_buttonhhR6Button+0x38>
		{
			but.time = 70;
     9f0:	96 e4       	ldi	r25, 0x46	; 70
     9f2:	fa 01       	movw	r30, r20
     9f4:	91 83       	std	Z+1, r25	; 0x01
			but.detect = false;
     9f6:	10 82       	st	Z, r1
			return true;
     9f8:	08 95       	ret
		}
	return false;
     9fa:	80 e0       	ldi	r24, 0x00	; 0
}
     9fc:	08 95       	ret

000009fe <_GLOBAL__sub_I_pwm>:
#include "Main.h"
PWM pwm;
     9fe:	86 ea       	ldi	r24, 0xA6	; 166
     a00:	90 e0       	ldi	r25, 0x00	; 0
     a02:	0e 94 1f 05 	call	0xa3e	; 0xa3e <_ZN3PWMC1Ev>
     a06:	08 95       	ret

00000a08 <_GLOBAL__sub_D_pwm>:
     a08:	86 ea       	ldi	r24, 0xA6	; 166
     a0a:	90 e0       	ldi	r25, 0x00	; 0
     a0c:	0e 94 cd 05 	call	0xb9a	; 0xb9a <_ZN3PWMD1Ev>
     a10:	08 95       	ret

00000a12 <_Z10peiph_initv>:
#include "periph_init.h"

void peiph_init()
{
	DDRB =	BIT3;									// ШИМ
     a12:	88 e0       	ldi	r24, 0x08	; 8
     a14:	87 bb       	out	0x17, r24	; 23
	DDRD =	BIT4 | BIT5;							// светодиоды
     a16:	80 e3       	ldi	r24, 0x30	; 48
     a18:	81 bb       	out	0x11, r24	; 17
	PORTD = BIT2 | BIT3 | BIT6;						// кнопки
     a1a:	8c e4       	ldi	r24, 0x4C	; 76
     a1c:	82 bb       	out	0x12, r24	; 18
	PORTB = BIT1 | BIT2;							// энкодер	
     a1e:	86 e0       	ldi	r24, 0x06	; 6
     a20:	88 bb       	out	0x18, r24	; 24
	//GICR =	(1<<INT0);								// PD2(16)
	//MCUCR =	(1<<ISC01) | (0<<ISC00);				// по спаду 
	
	//ADC initial
	ADMUX	=	(1<<ADLAR)|							// выравнивание по левому краю
				(0<<REFS1)|(1<<REFS0);				// опорное напряжение от внешнего источника питания
     a22:	80 e6       	ldi	r24, 0x60	; 96
     a24:	87 b9       	out	0x07, r24	; 7
	
	SFIOR	=	(0<<ADTS2)|(0<<ADTS1)|(0<<ADTS0);	// преобразование по прерыванию TIM0 OCR0
     a26:	10 be       	out	0x30, r1	; 48
	
	ADCSRA	=	(1<<ADEN); 							// ADC ON
     a28:	80 e8       	ldi	r24, 0x80	; 128
     a2a:	86 b9       	out	0x06, r24	; 6
				//(1<<ADSC) |						// включение преобразования (сбрасывается по окончанию) 
				//(1<<ADATE);						// автоматическое включение преобразований

	//TIM2 initial periodic system timer
	TIMSK |= (1<<OCIE2);							// прерывание по сравнению
     a2c:	89 b7       	in	r24, 0x39	; 57
     a2e:	80 68       	ori	r24, 0x80	; 128
     a30:	89 bf       	out	0x39, r24	; 57
	TCCR2 = (1<<FOC2) |								// режим NORMAL
			(0<<CS22) |(1<<CS21) |(1<<CS20);		// clk/256
     a32:	83 e8       	ldi	r24, 0x83	; 131
     a34:	85 bd       	out	0x25, r24	; 37
	TCNT2 = 0;										// обнуление счётного регистра
     a36:	14 bc       	out	0x24, r1	; 36
	OCR2  = 125;									// регистр сравнения
     a38:	8d e7       	ldi	r24, 0x7D	; 125
     a3a:	83 bd       	out	0x23, r24	; 35
     a3c:	08 95       	ret

00000a3e <_ZN3PWMC1Ev>:
#include "PWM.h"

PWM::PWM()
     a3e:	fc 01       	movw	r30, r24
{
	mode = INITIAL;
     a40:	80 81       	ld	r24, Z
     a42:	88 7f       	andi	r24, 0xF8	; 248
     a44:	80 83       	st	Z, r24
	
	FastPWM_settings._TCCR1A = 0<<WGM11 | 1<< WGM10 | 1<<COM1A1 | 0<<COM1A0;
     a46:	81 e8       	ldi	r24, 0x81	; 129
     a48:	86 83       	std	Z+6, r24	; 0x06
	FastPWM_settings._TCCR1B = 0<<WGM13 | 1<< WGM12 | 0<<CS12	| 0<<CS11	| 1<<CS10;
     a4a:	99 e0       	ldi	r25, 0x09	; 9
     a4c:	97 83       	std	Z+7, r25	; 0x07
	FastPWM_settings._OCR1AH = 0;
     a4e:	10 86       	std	Z+8, r1	; 0x08
	FastPWM_settings._OCR1AL = 0;
     a50:	11 86       	std	Z+9, r1	; 0x09
	
	CTC_settings._TCCR1A = 0<<WGM11 | 0<< WGM10 | 0<<COM1A1 | 1<<COM1A0;
     a52:	20 e4       	ldi	r18, 0x40	; 64
     a54:	21 83       	std	Z+1, r18	; 0x01
	CTC_settings._TCCR1B = 0<<WGM13 | 1<< WGM12 | 0<<CS12	| 0<<CS11	| 1<<CS10;
     a56:	92 83       	std	Z+2, r25	; 0x02
	CTC_settings._OCR1AH = 0;
     a58:	13 82       	std	Z+3, r1	; 0x03
	CTC_settings._OCR1AL = 0;
     a5a:	14 82       	std	Z+4, r1	; 0x04
	
	PhaseCorrect_settings._TCCR1A = 0<<WGM11 | 1<< WGM10 | 1<<COM1A1 | 0<<COM1A0;
     a5c:	83 87       	std	Z+11, r24	; 0x0b
	PhaseCorrect_settings._TCCR1B = 0<<WGM13 | 0<< WGM12 | 0<<CS12	 | 0<<CS11	| 1<<CS10;
     a5e:	91 e0       	ldi	r25, 0x01	; 1
     a60:	94 87       	std	Z+12, r25	; 0x0c
	PhaseCorrect_settings._OCR1AH = 0;
     a62:	15 86       	std	Z+13, r1	; 0x0d
	PhaseCorrect_settings._OCR1AL = 0;
     a64:	16 86       	std	Z+14, r1	; 0x0e

	PhaseCorrectFreq_settings._TCCR1A = 0<<WGM11 | 1<< WGM10 | 1<<COM1A1 | 0<<COM1A0;
     a66:	80 8b       	std	Z+16, r24	; 0x10
	PhaseCorrectFreq_settings._TCCR1B = 1<<WGM13 | 0<< WGM12 | 0<<CS12	 | 0<<CS11	| 1<<CS10;
     a68:	81 e1       	ldi	r24, 0x11	; 17
     a6a:	81 8b       	std	Z+17, r24	; 0x11
	PhaseCorrectFreq_settings._OCR1AH = 0;
     a6c:	12 8a       	std	Z+18, r1	; 0x12
	PhaseCorrectFreq_settings._OCR1AL = 0;
     a6e:	13 8a       	std	Z+19, r1	; 0x13


	TCCR1A = 0;
     a70:	1f bc       	out	0x2f, r1	; 47
	TCCR1B = 0;
     a72:	1e bc       	out	0x2e, r1	; 46
	TCNT1H = 0;	TCNT1L = 0;									// обнуление счётного регистра
     a74:	1d bc       	out	0x2d, r1	; 45
     a76:	1c bc       	out	0x2c, r1	; 44
	OCR1AH = 0;	OCR1AL = 0;									// обнуление регистра сравнения выходного сигнала
     a78:	1b bc       	out	0x2b, r1	; 43
     a7a:	1a bc       	out	0x2a, r1	; 42
	
	DDRD	|=	OC1A_bit;									// OC1A ON
     a7c:	8d 9a       	sbi	0x11, 5	; 17
     a7e:	08 95       	ret

00000a80 <_ZN3PWM13set_prescalerERKh>:
}

// выбор деления входной частоты 
void PWM::set_prescaler(const uint8_t &state)
{
	TCCR1B &=~ ((1<<CS12) | (1<<CS11) | (1<<CS10));
     a80:	8e b5       	in	r24, 0x2e	; 46
     a82:	88 7f       	andi	r24, 0xF8	; 248
     a84:	8e bd       	out	0x2e, r24	; 46
	switch(state)
     a86:	fb 01       	movw	r30, r22
     a88:	80 81       	ld	r24, Z
     a8a:	82 30       	cpi	r24, 0x02	; 2
     a8c:	99 f0       	breq	.+38     	; 0xab4 <_ZN3PWM13set_prescalerERKh+0x34>
     a8e:	28 f4       	brcc	.+10     	; 0xa9a <_ZN3PWM13set_prescalerERKh+0x1a>
     a90:	88 23       	and	r24, r24
     a92:	41 f0       	breq	.+16     	; 0xaa4 <_ZN3PWM13set_prescalerERKh+0x24>
     a94:	81 30       	cpi	r24, 0x01	; 1
     a96:	51 f0       	breq	.+20     	; 0xaac <_ZN3PWM13set_prescalerERKh+0x2c>
     a98:	08 95       	ret
     a9a:	83 30       	cpi	r24, 0x03	; 3
     a9c:	79 f0       	breq	.+30     	; 0xabc <_ZN3PWM13set_prescalerERKh+0x3c>
     a9e:	84 30       	cpi	r24, 0x04	; 4
     aa0:	89 f0       	breq	.+34     	; 0xac4 <_ZN3PWM13set_prescalerERKh+0x44>
     aa2:	08 95       	ret
	{
		case 0: TCCR1B |= (0<<CS12) | (0<<CS11) | (1<<CS10);  break;
     aa4:	8e b5       	in	r24, 0x2e	; 46
     aa6:	81 60       	ori	r24, 0x01	; 1
     aa8:	8e bd       	out	0x2e, r24	; 46
     aaa:	08 95       	ret
		case 1: TCCR1B |= (0<<CS12) | (1<<CS11) | (0<<CS10);  break;
     aac:	8e b5       	in	r24, 0x2e	; 46
     aae:	82 60       	ori	r24, 0x02	; 2
     ab0:	8e bd       	out	0x2e, r24	; 46
     ab2:	08 95       	ret
		case 2: TCCR1B |= (0<<CS12) | (1<<CS11) | (1<<CS10);  break;
     ab4:	8e b5       	in	r24, 0x2e	; 46
     ab6:	83 60       	ori	r24, 0x03	; 3
     ab8:	8e bd       	out	0x2e, r24	; 46
     aba:	08 95       	ret
		case 3: TCCR1B |= (1<<CS12) | (0<<CS11) | (0<<CS10);  break;
     abc:	8e b5       	in	r24, 0x2e	; 46
     abe:	84 60       	ori	r24, 0x04	; 4
     ac0:	8e bd       	out	0x2e, r24	; 46
     ac2:	08 95       	ret
		case 4:	TCCR1B |= (1<<CS12) | (0<<CS11) | (1<<CS10);  break;
     ac4:	8e b5       	in	r24, 0x2e	; 46
     ac6:	85 60       	ori	r24, 0x05	; 5
     ac8:	8e bd       	out	0x2e, r24	; 46
     aca:	08 95       	ret

00000acc <_ZN3PWM11select_modeERKh>:
		OCR1AL = 0;
	}
}

settings* PWM::select_mode(const uint8_t &mode)
{
     acc:	9c 01       	movw	r18, r24
	settings* tmp;
	switch(mode)
     ace:	fb 01       	movw	r30, r22
     ad0:	90 81       	ld	r25, Z
     ad2:	92 30       	cpi	r25, 0x02	; 2
     ad4:	79 f0       	breq	.+30     	; 0xaf4 <_ZN3PWM11select_modeERKh+0x28>
     ad6:	18 f4       	brcc	.+6      	; 0xade <_ZN3PWM11select_modeERKh+0x12>
     ad8:	91 30       	cpi	r25, 0x01	; 1
     ada:	31 f0       	breq	.+12     	; 0xae8 <_ZN3PWM11select_modeERKh+0x1c>
     adc:	11 c0       	rjmp	.+34     	; 0xb00 <_ZN3PWM11select_modeERKh+0x34>
     ade:	93 30       	cpi	r25, 0x03	; 3
     ae0:	61 f0       	breq	.+24     	; 0xafa <_ZN3PWM11select_modeERKh+0x2e>
     ae2:	94 30       	cpi	r25, 0x04	; 4
     ae4:	21 f0       	breq	.+8      	; 0xaee <_ZN3PWM11select_modeERKh+0x22>
     ae6:	0c c0       	rjmp	.+24     	; 0xb00 <_ZN3PWM11select_modeERKh+0x34>
	{
		case FAST_PWM:				tmp = &FastPWM_settings;			break;
     ae8:	c9 01       	movw	r24, r18
     aea:	06 96       	adiw	r24, 0x06	; 6
     aec:	08 95       	ret
		case CTC:					tmp = &CTC_settings;				break;
     aee:	c9 01       	movw	r24, r18
     af0:	01 96       	adiw	r24, 0x01	; 1
     af2:	08 95       	ret
		case PHASE_CORRECT:			tmp = &PhaseCorrect_settings;		break;
     af4:	c9 01       	movw	r24, r18
     af6:	0b 96       	adiw	r24, 0x0b	; 11
     af8:	08 95       	ret
		case PHASE_FREQ_CORRECT:	tmp = &PhaseCorrectFreq_settings;	break;
     afa:	c9 01       	movw	r24, r18
     afc:	40 96       	adiw	r24, 0x10	; 16
     afe:	08 95       	ret
		default: return 0;
     b00:	80 e0       	ldi	r24, 0x00	; 0
     b02:	90 e0       	ldi	r25, 0x00	; 0
	}
	return tmp;
}
     b04:	08 95       	ret

00000b06 <_ZN3PWM13save_settingsEv>:
		case 4:	TCCR1B |= (1<<CS12) | (0<<CS11) | (1<<CS10);  break;
	}
}

void PWM::save_settings()
{
     b06:	cf 93       	push	r28
     b08:	df 93       	push	r29
     b0a:	1f 92       	push	r1
     b0c:	cd b7       	in	r28, 0x3d	; 61
     b0e:	de b7       	in	r29, 0x3e	; 62
     b10:	fc 01       	movw	r30, r24
	settings *tmp;
	tmp = select_mode(mode);	
     b12:	90 81       	ld	r25, Z
     b14:	97 70       	andi	r25, 0x07	; 7
     b16:	99 83       	std	Y+1, r25	; 0x01
     b18:	be 01       	movw	r22, r28
     b1a:	6f 5f       	subi	r22, 0xFF	; 255
     b1c:	7f 4f       	sbci	r23, 0xFF	; 255
     b1e:	cf 01       	movw	r24, r30
     b20:	0e 94 66 05 	call	0xacc	; 0xacc <_ZN3PWM11select_modeERKh>
     b24:	fc 01       	movw	r30, r24
	tmp->_OCR1AH = OCR1AH;
     b26:	8b b5       	in	r24, 0x2b	; 43
     b28:	82 83       	std	Z+2, r24	; 0x02
	tmp->_OCR1AL = OCR1AL;
     b2a:	8a b5       	in	r24, 0x2a	; 42
     b2c:	83 83       	std	Z+3, r24	; 0x03
	tmp->save	 = true;
     b2e:	81 e0       	ldi	r24, 0x01	; 1
     b30:	84 83       	std	Z+4, r24	; 0x04
}
     b32:	0f 90       	pop	r0
     b34:	df 91       	pop	r29
     b36:	cf 91       	pop	r28
     b38:	08 95       	ret

00000b3a <_ZN3PWM12set_mode_pwmENS_5_MODEE>:

void PWM::set_mode_pwm(_MODE _M)
{
     b3a:	ff 92       	push	r15
     b3c:	0f 93       	push	r16
     b3e:	1f 93       	push	r17
     b40:	cf 93       	push	r28
     b42:	df 93       	push	r29
     b44:	1f 92       	push	r1
     b46:	cd b7       	in	r28, 0x3d	; 61
     b48:	de b7       	in	r29, 0x3e	; 62
     b4a:	8c 01       	movw	r16, r24
     b4c:	f6 2e       	mov	r15, r22
	save_settings();
     b4e:	0e 94 83 05 	call	0xb06	; 0xb06 <_ZN3PWM13save_settingsEv>
	mode = _M;
     b52:	6f 2d       	mov	r22, r15
     b54:	67 70       	andi	r22, 0x07	; 7
     b56:	f8 01       	movw	r30, r16
     b58:	90 81       	ld	r25, Z
     b5a:	98 7f       	andi	r25, 0xF8	; 248
     b5c:	96 2b       	or	r25, r22
     b5e:	90 83       	st	Z, r25
	settings *mode_setting;
	mode_setting = select_mode(mode);
     b60:	69 83       	std	Y+1, r22	; 0x01
     b62:	be 01       	movw	r22, r28
     b64:	6f 5f       	subi	r22, 0xFF	; 255
     b66:	7f 4f       	sbci	r23, 0xFF	; 255
     b68:	c8 01       	movw	r24, r16
     b6a:	0e 94 66 05 	call	0xacc	; 0xacc <_ZN3PWM11select_modeERKh>
     b6e:	fc 01       	movw	r30, r24

	TCCR1A = mode_setting->_TCCR1A;
     b70:	80 81       	ld	r24, Z
     b72:	8f bd       	out	0x2f, r24	; 47
	TCCR1B = mode_setting->_TCCR1B;
     b74:	81 81       	ldd	r24, Z+1	; 0x01
     b76:	8e bd       	out	0x2e, r24	; 46
	
	if (mode_setting->save)
     b78:	84 81       	ldd	r24, Z+4	; 0x04
     b7a:	88 23       	and	r24, r24
     b7c:	29 f0       	breq	.+10     	; 0xb88 <_ZN3PWM12set_mode_pwmENS_5_MODEE+0x4e>
	{
		OCR1AH = mode_setting->_OCR1AH;
     b7e:	82 81       	ldd	r24, Z+2	; 0x02
     b80:	8b bd       	out	0x2b, r24	; 43
		OCR1AL = mode_setting->_OCR1AL;
     b82:	83 81       	ldd	r24, Z+3	; 0x03
     b84:	8a bd       	out	0x2a, r24	; 42
     b86:	02 c0       	rjmp	.+4      	; 0xb8c <_ZN3PWM12set_mode_pwmENS_5_MODEE+0x52>
	}
	else
	{
		OCR1AH = 0;
     b88:	1b bc       	out	0x2b, r1	; 43
		OCR1AL = 0;
     b8a:	1a bc       	out	0x2a, r1	; 42
	}
}
     b8c:	0f 90       	pop	r0
     b8e:	df 91       	pop	r29
     b90:	cf 91       	pop	r28
     b92:	1f 91       	pop	r17
     b94:	0f 91       	pop	r16
     b96:	ff 90       	pop	r15
     b98:	08 95       	ret

00000b9a <_ZN3PWMD1Ev>:
}


PWM::~PWM()
{
	TIMSK	&=~ (1<<OCIE1A);
     b9a:	89 b7       	in	r24, 0x39	; 57
     b9c:	8f 7e       	andi	r24, 0xEF	; 239
     b9e:	89 bf       	out	0x39, r24	; 57
	TCCR1A	= 0;
     ba0:	1f bc       	out	0x2f, r1	; 47
	TCCR1B	= 0;
     ba2:	1e bc       	out	0x2e, r1	; 46
	DDRD	&=~ OC1A_bit;
     ba4:	8d 98       	cbi	0x11, 5	; 17
	TCNT1H	= 0;	TCNT1L = 0;									// обнуление счётного регистра
     ba6:	1d bc       	out	0x2d, r1	; 45
     ba8:	1c bc       	out	0x2c, r1	; 44
	OCR1AH	= 0;	OCR1AL = 0;									// обнуление регистра сравнения выходного сигнала
     baa:	1b bc       	out	0x2b, r1	; 43
     bac:	1a bc       	out	0x2a, r1	; 42
     bae:	08 95       	ret

00000bb0 <_Z14screen_refreshv>:

extern States state;
extern uint16_t coeff;

bool screen_refresh()
{
     bb0:	8f 92       	push	r8
     bb2:	9f 92       	push	r9
     bb4:	af 92       	push	r10
     bb6:	bf 92       	push	r11
     bb8:	cf 92       	push	r12
     bba:	df 92       	push	r13
     bbc:	ef 92       	push	r14
     bbe:	ff 92       	push	r15
     bc0:	0f 93       	push	r16
     bc2:	1f 93       	push	r17
     bc4:	cf 93       	push	r28
     bc6:	df 93       	push	r29
     bc8:	00 d0       	rcall	.+0      	; 0xbca <_Z14screen_refreshv+0x1a>
     bca:	00 d0       	rcall	.+0      	; 0xbcc <_Z14screen_refreshv+0x1c>
     bcc:	1f 92       	push	r1
     bce:	cd b7       	in	r28, 0x3d	; 61
     bd0:	de b7       	in	r29, 0x3e	; 62
	lcd_clrscr();
     bd2:	0e 94 58 02 	call	0x4b0	; 0x4b0 <lcd_clrscr>
	lcd_goto(0);
     bd6:	80 e0       	ldi	r24, 0x00	; 0
     bd8:	0e 94 4a 02 	call	0x494	; 0x494 <lcd_goto>

	uint32_t tmp;
	double tmpL;	
	char buff[5];
	switch(state.pwm_mode)
     bdc:	80 91 a3 00 	lds	r24, 0x00A3
     be0:	98 2f       	mov	r25, r24
     be2:	92 95       	swap	r25
     be4:	96 95       	lsr	r25
     be6:	96 95       	lsr	r25
     be8:	93 70       	andi	r25, 0x03	; 3
     bea:	80 91 a4 00 	lds	r24, 0x00A4
     bee:	81 70       	andi	r24, 0x01	; 1
     bf0:	88 0f       	add	r24, r24
     bf2:	88 0f       	add	r24, r24
     bf4:	89 2b       	or	r24, r25
     bf6:	90 e0       	ldi	r25, 0x00	; 0
     bf8:	81 30       	cpi	r24, 0x01	; 1
     bfa:	91 05       	cpc	r25, r1
     bfc:	09 f4       	brne	.+2      	; 0xc00 <_Z14screen_refreshv+0x50>
     bfe:	96 c0       	rjmp	.+300    	; 0xd2c <_Z14screen_refreshv+0x17c>
     c00:	82 30       	cpi	r24, 0x02	; 2
     c02:	91 05       	cpc	r25, r1
     c04:	09 f4       	brne	.+2      	; 0xc08 <_Z14screen_refreshv+0x58>
     c06:	9e c0       	rjmp	.+316    	; 0xd44 <_Z14screen_refreshv+0x194>
     c08:	89 2b       	or	r24, r25
     c0a:	09 f0       	breq	.+2      	; 0xc0e <_Z14screen_refreshv+0x5e>
     c0c:	a6 c0       	rjmp	.+332    	; 0xd5a <_Z14screen_refreshv+0x1aa>
	{
		case 0: 
			lcd_puts("CTC "); 
     c0e:	89 e6       	ldi	r24, 0x69	; 105
     c10:	90 e0       	ldi	r25, 0x00	; 0
     c12:	0e 94 70 02 	call	0x4e0	; 0x4e0 <lcd_puts>

			sprintf(buff," x%u",coeff);
     c16:	80 91 67 00 	lds	r24, 0x0067
     c1a:	8f 93       	push	r24
     c1c:	80 91 66 00 	lds	r24, 0x0066
     c20:	8f 93       	push	r24
     c22:	8e e6       	ldi	r24, 0x6E	; 110
     c24:	90 e0       	ldi	r25, 0x00	; 0
     c26:	9f 93       	push	r25
     c28:	8f 93       	push	r24
     c2a:	8e 01       	movw	r16, r28
     c2c:	0f 5f       	subi	r16, 0xFF	; 255
     c2e:	1f 4f       	sbci	r17, 0xFF	; 255
     c30:	1f 93       	push	r17
     c32:	0f 93       	push	r16
     c34:	0e 94 04 0d 	call	0x1a08	; 0x1a08 <sprintf>
			lcd_puts(buff);			
     c38:	c8 01       	movw	r24, r16
     c3a:	0e 94 70 02 	call	0x4e0	; 0x4e0 <lcd_puts>
			
			lcd_goto(40); 
     c3e:	88 e2       	ldi	r24, 0x28	; 40
     c40:	0e 94 4a 02 	call	0x494	; 0x494 <lcd_goto>
			lcd_puts("Freq: ");
     c44:	83 e7       	ldi	r24, 0x73	; 115
     c46:	90 e0       	ldi	r25, 0x00	; 0
     c48:	0e 94 70 02 	call	0x4e0	; 0x4e0 <lcd_puts>
			lcd_goto(46);
     c4c:	8e e2       	ldi	r24, 0x2E	; 46
     c4e:	0e 94 4a 02 	call	0x494	; 0x494 <lcd_goto>
			
			tmp = OCR1AH<<8 | OCR1AL;			
     c52:	8b b5       	in	r24, 0x2b	; 43
     c54:	ca b4       	in	r12, 0x2a	; 42
     c56:	d1 2c       	mov	r13, r1
     c58:	d8 2a       	or	r13, r24
     c5a:	0d 2c       	mov	r0, r13
     c5c:	00 0c       	add	r0, r0
     c5e:	ee 08       	sbc	r14, r14
     c60:	ff 08       	sbc	r15, r15
			tmpL = 2000 * (tmp+1);
     c62:	8f ef       	ldi	r24, 0xFF	; 255
     c64:	c8 1a       	sub	r12, r24
     c66:	d8 0a       	sbc	r13, r24
     c68:	e8 0a       	sbc	r14, r24
     c6a:	f8 0a       	sbc	r15, r24
     c6c:	a0 ed       	ldi	r26, 0xD0	; 208
     c6e:	b7 e0       	ldi	r27, 0x07	; 7
     c70:	a7 01       	movw	r20, r14
     c72:	96 01       	movw	r18, r12
     c74:	0e 94 87 0b 	call	0x170e	; 0x170e <__muluhisi3>
     c78:	0e 94 37 07 	call	0xe6e	; 0xe6e <__floatunsisf>
     c7c:	4b 01       	movw	r8, r22
     c7e:	5c 01       	movw	r10, r24
			if (tmpL <= F_CPU)	
     c80:	0f 90       	pop	r0
     c82:	0f 90       	pop	r0
     c84:	0f 90       	pop	r0
     c86:	0f 90       	pop	r0
     c88:	0f 90       	pop	r0
     c8a:	0f 90       	pop	r0
     c8c:	20 e0       	ldi	r18, 0x00	; 0
     c8e:	34 e2       	ldi	r19, 0x24	; 36
     c90:	44 e7       	ldi	r20, 0x74	; 116
     c92:	5b e4       	ldi	r21, 0x4B	; 75
     c94:	0e 94 c0 06 	call	0xd80	; 0xd80 <__cmpsf2>
     c98:	18 16       	cp	r1, r24
     c9a:	0c f1       	brlt	.+66     	; 0xcde <_Z14screen_refreshv+0x12e>
			{
				tmpL = F_CPU/tmpL;
     c9c:	a5 01       	movw	r20, r10
     c9e:	94 01       	movw	r18, r8
     ca0:	60 e0       	ldi	r22, 0x00	; 0
     ca2:	74 e2       	ldi	r23, 0x24	; 36
     ca4:	84 e7       	ldi	r24, 0x74	; 116
     ca6:	9b e4       	ldi	r25, 0x4B	; 75
     ca8:	0e 94 c5 06 	call	0xd8a	; 0xd8a <__divsf3>
				sprintf(buff,"%0.3f",tmpL);
     cac:	9f 93       	push	r25
     cae:	8f 93       	push	r24
     cb0:	7f 93       	push	r23
     cb2:	6f 93       	push	r22
     cb4:	8a e7       	ldi	r24, 0x7A	; 122
     cb6:	90 e0       	ldi	r25, 0x00	; 0
     cb8:	9f 93       	push	r25
     cba:	8f 93       	push	r24
     cbc:	1f 93       	push	r17
     cbe:	0f 93       	push	r16
     cc0:	0e 94 04 0d 	call	0x1a08	; 0x1a08 <sprintf>
				lcd_puts(buff);
     cc4:	c8 01       	movw	r24, r16
     cc6:	0e 94 70 02 	call	0x4e0	; 0x4e0 <lcd_puts>
				lcd_puts("KHz");
     cca:	80 e8       	ldi	r24, 0x80	; 128
     ccc:	90 e0       	ldi	r25, 0x00	; 0
     cce:	0e 94 70 02 	call	0x4e0	; 0x4e0 <lcd_puts>
     cd2:	0f b6       	in	r0, 0x3f	; 63
     cd4:	f8 94       	cli
     cd6:	de bf       	out	0x3e, r29	; 62
     cd8:	0f be       	out	0x3f, r0	; 63
     cda:	cd bf       	out	0x3d, r28	; 61
     cdc:	3e c0       	rjmp	.+124    	; 0xd5a <_Z14screen_refreshv+0x1aa>
			}
			else
			{
				sprintf(buff,"%u",(uint16_t)(F_CPU/(2 * (tmp+1))));
     cde:	a7 01       	movw	r20, r14
     ce0:	96 01       	movw	r18, r12
     ce2:	22 0f       	add	r18, r18
     ce4:	33 1f       	adc	r19, r19
     ce6:	44 1f       	adc	r20, r20
     ce8:	55 1f       	adc	r21, r21
     cea:	60 e0       	ldi	r22, 0x00	; 0
     cec:	74 e2       	ldi	r23, 0x24	; 36
     cee:	84 ef       	ldi	r24, 0xF4	; 244
     cf0:	90 e0       	ldi	r25, 0x00	; 0
     cf2:	0e 94 65 0b 	call	0x16ca	; 0x16ca <__udivmodsi4>
     cf6:	3f 93       	push	r19
     cf8:	2f 93       	push	r18
     cfa:	80 e7       	ldi	r24, 0x70	; 112
     cfc:	90 e0       	ldi	r25, 0x00	; 0
     cfe:	9f 93       	push	r25
     d00:	8f 93       	push	r24
     d02:	8e 01       	movw	r16, r28
     d04:	0f 5f       	subi	r16, 0xFF	; 255
     d06:	1f 4f       	sbci	r17, 0xFF	; 255
     d08:	1f 93       	push	r17
     d0a:	0f 93       	push	r16
     d0c:	0e 94 04 0d 	call	0x1a08	; 0x1a08 <sprintf>
				lcd_puts(buff);
     d10:	c8 01       	movw	r24, r16
     d12:	0e 94 70 02 	call	0x4e0	; 0x4e0 <lcd_puts>
				lcd_puts("Hz");
     d16:	81 e8       	ldi	r24, 0x81	; 129
     d18:	90 e0       	ldi	r25, 0x00	; 0
     d1a:	0e 94 70 02 	call	0x4e0	; 0x4e0 <lcd_puts>
     d1e:	0f 90       	pop	r0
     d20:	0f 90       	pop	r0
     d22:	0f 90       	pop	r0
     d24:	0f 90       	pop	r0
     d26:	0f 90       	pop	r0
     d28:	0f 90       	pop	r0
     d2a:	17 c0       	rjmp	.+46     	; 0xd5a <_Z14screen_refreshv+0x1aa>
			}
			
		
			
		break;	
		case 1:	lcd_puts("Fast PWM "); lcd_goto(40); lcd_puts("Freq: ");		break;
     d2c:	84 e8       	ldi	r24, 0x84	; 132
     d2e:	90 e0       	ldi	r25, 0x00	; 0
     d30:	0e 94 70 02 	call	0x4e0	; 0x4e0 <lcd_puts>
     d34:	88 e2       	ldi	r24, 0x28	; 40
     d36:	0e 94 4a 02 	call	0x494	; 0x494 <lcd_goto>
     d3a:	83 e7       	ldi	r24, 0x73	; 115
     d3c:	90 e0       	ldi	r25, 0x00	; 0
     d3e:	0e 94 70 02 	call	0x4e0	; 0x4e0 <lcd_puts>
     d42:	0b c0       	rjmp	.+22     	; 0xd5a <_Z14screen_refreshv+0x1aa>
		case 2:	lcd_puts("Phase Corr. PWM "); lcd_goto(40); lcd_puts("Freq: ");	break;
     d44:	8e e8       	ldi	r24, 0x8E	; 142
     d46:	90 e0       	ldi	r25, 0x00	; 0
     d48:	0e 94 70 02 	call	0x4e0	; 0x4e0 <lcd_puts>
     d4c:	88 e2       	ldi	r24, 0x28	; 40
     d4e:	0e 94 4a 02 	call	0x494	; 0x494 <lcd_goto>
     d52:	83 e7       	ldi	r24, 0x73	; 115
     d54:	90 e0       	ldi	r25, 0x00	; 0
     d56:	0e 94 70 02 	call	0x4e0	; 0x4e0 <lcd_puts>
	}
	
		return true;
     d5a:	81 e0       	ldi	r24, 0x01	; 1
     d5c:	0f 90       	pop	r0
     d5e:	0f 90       	pop	r0
     d60:	0f 90       	pop	r0
     d62:	0f 90       	pop	r0
     d64:	0f 90       	pop	r0
     d66:	df 91       	pop	r29
     d68:	cf 91       	pop	r28
     d6a:	1f 91       	pop	r17
     d6c:	0f 91       	pop	r16
     d6e:	ff 90       	pop	r15
     d70:	ef 90       	pop	r14
     d72:	df 90       	pop	r13
     d74:	cf 90       	pop	r12
     d76:	bf 90       	pop	r11
     d78:	af 90       	pop	r10
     d7a:	9f 90       	pop	r9
     d7c:	8f 90       	pop	r8
     d7e:	08 95       	ret

00000d80 <__cmpsf2>:
     d80:	0e 94 74 07 	call	0xee8	; 0xee8 <__fp_cmp>
     d84:	08 f4       	brcc	.+2      	; 0xd88 <__cmpsf2+0x8>
     d86:	81 e0       	ldi	r24, 0x01	; 1
     d88:	08 95       	ret

00000d8a <__divsf3>:
     d8a:	0e 94 d9 06 	call	0xdb2	; 0xdb2 <__divsf3x>
     d8e:	0c 94 af 07 	jmp	0xf5e	; 0xf5e <__fp_round>
     d92:	0e 94 a8 07 	call	0xf50	; 0xf50 <__fp_pscB>
     d96:	58 f0       	brcs	.+22     	; 0xdae <__divsf3+0x24>
     d98:	0e 94 a1 07 	call	0xf42	; 0xf42 <__fp_pscA>
     d9c:	40 f0       	brcs	.+16     	; 0xdae <__divsf3+0x24>
     d9e:	29 f4       	brne	.+10     	; 0xdaa <__divsf3+0x20>
     da0:	5f 3f       	cpi	r21, 0xFF	; 255
     da2:	29 f0       	breq	.+10     	; 0xdae <__divsf3+0x24>
     da4:	0c 94 98 07 	jmp	0xf30	; 0xf30 <__fp_inf>
     da8:	51 11       	cpse	r21, r1
     daa:	0c 94 e3 07 	jmp	0xfc6	; 0xfc6 <__fp_szero>
     dae:	0c 94 9e 07 	jmp	0xf3c	; 0xf3c <__fp_nan>

00000db2 <__divsf3x>:
     db2:	0e 94 c0 07 	call	0xf80	; 0xf80 <__fp_split3>
     db6:	68 f3       	brcs	.-38     	; 0xd92 <__divsf3+0x8>

00000db8 <__divsf3_pse>:
     db8:	99 23       	and	r25, r25
     dba:	b1 f3       	breq	.-20     	; 0xda8 <__divsf3+0x1e>
     dbc:	55 23       	and	r21, r21
     dbe:	91 f3       	breq	.-28     	; 0xda4 <__divsf3+0x1a>
     dc0:	95 1b       	sub	r25, r21
     dc2:	55 0b       	sbc	r21, r21
     dc4:	bb 27       	eor	r27, r27
     dc6:	aa 27       	eor	r26, r26
     dc8:	62 17       	cp	r22, r18
     dca:	73 07       	cpc	r23, r19
     dcc:	84 07       	cpc	r24, r20
     dce:	38 f0       	brcs	.+14     	; 0xdde <__divsf3_pse+0x26>
     dd0:	9f 5f       	subi	r25, 0xFF	; 255
     dd2:	5f 4f       	sbci	r21, 0xFF	; 255
     dd4:	22 0f       	add	r18, r18
     dd6:	33 1f       	adc	r19, r19
     dd8:	44 1f       	adc	r20, r20
     dda:	aa 1f       	adc	r26, r26
     ddc:	a9 f3       	breq	.-22     	; 0xdc8 <__divsf3_pse+0x10>
     dde:	35 d0       	rcall	.+106    	; 0xe4a <__divsf3_pse+0x92>
     de0:	0e 2e       	mov	r0, r30
     de2:	3a f0       	brmi	.+14     	; 0xdf2 <__divsf3_pse+0x3a>
     de4:	e0 e8       	ldi	r30, 0x80	; 128
     de6:	32 d0       	rcall	.+100    	; 0xe4c <__divsf3_pse+0x94>
     de8:	91 50       	subi	r25, 0x01	; 1
     dea:	50 40       	sbci	r21, 0x00	; 0
     dec:	e6 95       	lsr	r30
     dee:	00 1c       	adc	r0, r0
     df0:	ca f7       	brpl	.-14     	; 0xde4 <__divsf3_pse+0x2c>
     df2:	2b d0       	rcall	.+86     	; 0xe4a <__divsf3_pse+0x92>
     df4:	fe 2f       	mov	r31, r30
     df6:	29 d0       	rcall	.+82     	; 0xe4a <__divsf3_pse+0x92>
     df8:	66 0f       	add	r22, r22
     dfa:	77 1f       	adc	r23, r23
     dfc:	88 1f       	adc	r24, r24
     dfe:	bb 1f       	adc	r27, r27
     e00:	26 17       	cp	r18, r22
     e02:	37 07       	cpc	r19, r23
     e04:	48 07       	cpc	r20, r24
     e06:	ab 07       	cpc	r26, r27
     e08:	b0 e8       	ldi	r27, 0x80	; 128
     e0a:	09 f0       	breq	.+2      	; 0xe0e <__divsf3_pse+0x56>
     e0c:	bb 0b       	sbc	r27, r27
     e0e:	80 2d       	mov	r24, r0
     e10:	bf 01       	movw	r22, r30
     e12:	ff 27       	eor	r31, r31
     e14:	93 58       	subi	r25, 0x83	; 131
     e16:	5f 4f       	sbci	r21, 0xFF	; 255
     e18:	3a f0       	brmi	.+14     	; 0xe28 <__divsf3_pse+0x70>
     e1a:	9e 3f       	cpi	r25, 0xFE	; 254
     e1c:	51 05       	cpc	r21, r1
     e1e:	78 f0       	brcs	.+30     	; 0xe3e <__divsf3_pse+0x86>
     e20:	0c 94 98 07 	jmp	0xf30	; 0xf30 <__fp_inf>
     e24:	0c 94 e3 07 	jmp	0xfc6	; 0xfc6 <__fp_szero>
     e28:	5f 3f       	cpi	r21, 0xFF	; 255
     e2a:	e4 f3       	brlt	.-8      	; 0xe24 <__divsf3_pse+0x6c>
     e2c:	98 3e       	cpi	r25, 0xE8	; 232
     e2e:	d4 f3       	brlt	.-12     	; 0xe24 <__divsf3_pse+0x6c>
     e30:	86 95       	lsr	r24
     e32:	77 95       	ror	r23
     e34:	67 95       	ror	r22
     e36:	b7 95       	ror	r27
     e38:	f7 95       	ror	r31
     e3a:	9f 5f       	subi	r25, 0xFF	; 255
     e3c:	c9 f7       	brne	.-14     	; 0xe30 <__divsf3_pse+0x78>
     e3e:	88 0f       	add	r24, r24
     e40:	91 1d       	adc	r25, r1
     e42:	96 95       	lsr	r25
     e44:	87 95       	ror	r24
     e46:	97 f9       	bld	r25, 7
     e48:	08 95       	ret
     e4a:	e1 e0       	ldi	r30, 0x01	; 1
     e4c:	66 0f       	add	r22, r22
     e4e:	77 1f       	adc	r23, r23
     e50:	88 1f       	adc	r24, r24
     e52:	bb 1f       	adc	r27, r27
     e54:	62 17       	cp	r22, r18
     e56:	73 07       	cpc	r23, r19
     e58:	84 07       	cpc	r24, r20
     e5a:	ba 07       	cpc	r27, r26
     e5c:	20 f0       	brcs	.+8      	; 0xe66 <__divsf3_pse+0xae>
     e5e:	62 1b       	sub	r22, r18
     e60:	73 0b       	sbc	r23, r19
     e62:	84 0b       	sbc	r24, r20
     e64:	ba 0b       	sbc	r27, r26
     e66:	ee 1f       	adc	r30, r30
     e68:	88 f7       	brcc	.-30     	; 0xe4c <__divsf3_pse+0x94>
     e6a:	e0 95       	com	r30
     e6c:	08 95       	ret

00000e6e <__floatunsisf>:
     e6e:	e8 94       	clt
     e70:	09 c0       	rjmp	.+18     	; 0xe84 <__floatsisf+0x12>

00000e72 <__floatsisf>:
     e72:	97 fb       	bst	r25, 7
     e74:	3e f4       	brtc	.+14     	; 0xe84 <__floatsisf+0x12>
     e76:	90 95       	com	r25
     e78:	80 95       	com	r24
     e7a:	70 95       	com	r23
     e7c:	61 95       	neg	r22
     e7e:	7f 4f       	sbci	r23, 0xFF	; 255
     e80:	8f 4f       	sbci	r24, 0xFF	; 255
     e82:	9f 4f       	sbci	r25, 0xFF	; 255
     e84:	99 23       	and	r25, r25
     e86:	a9 f0       	breq	.+42     	; 0xeb2 <__floatsisf+0x40>
     e88:	f9 2f       	mov	r31, r25
     e8a:	96 e9       	ldi	r25, 0x96	; 150
     e8c:	bb 27       	eor	r27, r27
     e8e:	93 95       	inc	r25
     e90:	f6 95       	lsr	r31
     e92:	87 95       	ror	r24
     e94:	77 95       	ror	r23
     e96:	67 95       	ror	r22
     e98:	b7 95       	ror	r27
     e9a:	f1 11       	cpse	r31, r1
     e9c:	f8 cf       	rjmp	.-16     	; 0xe8e <__floatsisf+0x1c>
     e9e:	fa f4       	brpl	.+62     	; 0xede <__floatsisf+0x6c>
     ea0:	bb 0f       	add	r27, r27
     ea2:	11 f4       	brne	.+4      	; 0xea8 <__floatsisf+0x36>
     ea4:	60 ff       	sbrs	r22, 0
     ea6:	1b c0       	rjmp	.+54     	; 0xede <__floatsisf+0x6c>
     ea8:	6f 5f       	subi	r22, 0xFF	; 255
     eaa:	7f 4f       	sbci	r23, 0xFF	; 255
     eac:	8f 4f       	sbci	r24, 0xFF	; 255
     eae:	9f 4f       	sbci	r25, 0xFF	; 255
     eb0:	16 c0       	rjmp	.+44     	; 0xede <__floatsisf+0x6c>
     eb2:	88 23       	and	r24, r24
     eb4:	11 f0       	breq	.+4      	; 0xeba <__floatsisf+0x48>
     eb6:	96 e9       	ldi	r25, 0x96	; 150
     eb8:	11 c0       	rjmp	.+34     	; 0xedc <__floatsisf+0x6a>
     eba:	77 23       	and	r23, r23
     ebc:	21 f0       	breq	.+8      	; 0xec6 <__floatsisf+0x54>
     ebe:	9e e8       	ldi	r25, 0x8E	; 142
     ec0:	87 2f       	mov	r24, r23
     ec2:	76 2f       	mov	r23, r22
     ec4:	05 c0       	rjmp	.+10     	; 0xed0 <__floatsisf+0x5e>
     ec6:	66 23       	and	r22, r22
     ec8:	71 f0       	breq	.+28     	; 0xee6 <__floatsisf+0x74>
     eca:	96 e8       	ldi	r25, 0x86	; 134
     ecc:	86 2f       	mov	r24, r22
     ece:	70 e0       	ldi	r23, 0x00	; 0
     ed0:	60 e0       	ldi	r22, 0x00	; 0
     ed2:	2a f0       	brmi	.+10     	; 0xede <__floatsisf+0x6c>
     ed4:	9a 95       	dec	r25
     ed6:	66 0f       	add	r22, r22
     ed8:	77 1f       	adc	r23, r23
     eda:	88 1f       	adc	r24, r24
     edc:	da f7       	brpl	.-10     	; 0xed4 <__floatsisf+0x62>
     ede:	88 0f       	add	r24, r24
     ee0:	96 95       	lsr	r25
     ee2:	87 95       	ror	r24
     ee4:	97 f9       	bld	r25, 7
     ee6:	08 95       	ret

00000ee8 <__fp_cmp>:
     ee8:	99 0f       	add	r25, r25
     eea:	00 08       	sbc	r0, r0
     eec:	55 0f       	add	r21, r21
     eee:	aa 0b       	sbc	r26, r26
     ef0:	e0 e8       	ldi	r30, 0x80	; 128
     ef2:	fe ef       	ldi	r31, 0xFE	; 254
     ef4:	16 16       	cp	r1, r22
     ef6:	17 06       	cpc	r1, r23
     ef8:	e8 07       	cpc	r30, r24
     efa:	f9 07       	cpc	r31, r25
     efc:	c0 f0       	brcs	.+48     	; 0xf2e <__fp_cmp+0x46>
     efe:	12 16       	cp	r1, r18
     f00:	13 06       	cpc	r1, r19
     f02:	e4 07       	cpc	r30, r20
     f04:	f5 07       	cpc	r31, r21
     f06:	98 f0       	brcs	.+38     	; 0xf2e <__fp_cmp+0x46>
     f08:	62 1b       	sub	r22, r18
     f0a:	73 0b       	sbc	r23, r19
     f0c:	84 0b       	sbc	r24, r20
     f0e:	95 0b       	sbc	r25, r21
     f10:	39 f4       	brne	.+14     	; 0xf20 <__fp_cmp+0x38>
     f12:	0a 26       	eor	r0, r26
     f14:	61 f0       	breq	.+24     	; 0xf2e <__fp_cmp+0x46>
     f16:	23 2b       	or	r18, r19
     f18:	24 2b       	or	r18, r20
     f1a:	25 2b       	or	r18, r21
     f1c:	21 f4       	brne	.+8      	; 0xf26 <__fp_cmp+0x3e>
     f1e:	08 95       	ret
     f20:	0a 26       	eor	r0, r26
     f22:	09 f4       	brne	.+2      	; 0xf26 <__fp_cmp+0x3e>
     f24:	a1 40       	sbci	r26, 0x01	; 1
     f26:	a6 95       	lsr	r26
     f28:	8f ef       	ldi	r24, 0xFF	; 255
     f2a:	81 1d       	adc	r24, r1
     f2c:	81 1d       	adc	r24, r1
     f2e:	08 95       	ret

00000f30 <__fp_inf>:
     f30:	97 f9       	bld	r25, 7
     f32:	9f 67       	ori	r25, 0x7F	; 127
     f34:	80 e8       	ldi	r24, 0x80	; 128
     f36:	70 e0       	ldi	r23, 0x00	; 0
     f38:	60 e0       	ldi	r22, 0x00	; 0
     f3a:	08 95       	ret

00000f3c <__fp_nan>:
     f3c:	9f ef       	ldi	r25, 0xFF	; 255
     f3e:	80 ec       	ldi	r24, 0xC0	; 192
     f40:	08 95       	ret

00000f42 <__fp_pscA>:
     f42:	00 24       	eor	r0, r0
     f44:	0a 94       	dec	r0
     f46:	16 16       	cp	r1, r22
     f48:	17 06       	cpc	r1, r23
     f4a:	18 06       	cpc	r1, r24
     f4c:	09 06       	cpc	r0, r25
     f4e:	08 95       	ret

00000f50 <__fp_pscB>:
     f50:	00 24       	eor	r0, r0
     f52:	0a 94       	dec	r0
     f54:	12 16       	cp	r1, r18
     f56:	13 06       	cpc	r1, r19
     f58:	14 06       	cpc	r1, r20
     f5a:	05 06       	cpc	r0, r21
     f5c:	08 95       	ret

00000f5e <__fp_round>:
     f5e:	09 2e       	mov	r0, r25
     f60:	03 94       	inc	r0
     f62:	00 0c       	add	r0, r0
     f64:	11 f4       	brne	.+4      	; 0xf6a <__fp_round+0xc>
     f66:	88 23       	and	r24, r24
     f68:	52 f0       	brmi	.+20     	; 0xf7e <__fp_round+0x20>
     f6a:	bb 0f       	add	r27, r27
     f6c:	40 f4       	brcc	.+16     	; 0xf7e <__fp_round+0x20>
     f6e:	bf 2b       	or	r27, r31
     f70:	11 f4       	brne	.+4      	; 0xf76 <__fp_round+0x18>
     f72:	60 ff       	sbrs	r22, 0
     f74:	04 c0       	rjmp	.+8      	; 0xf7e <__fp_round+0x20>
     f76:	6f 5f       	subi	r22, 0xFF	; 255
     f78:	7f 4f       	sbci	r23, 0xFF	; 255
     f7a:	8f 4f       	sbci	r24, 0xFF	; 255
     f7c:	9f 4f       	sbci	r25, 0xFF	; 255
     f7e:	08 95       	ret

00000f80 <__fp_split3>:
     f80:	57 fd       	sbrc	r21, 7
     f82:	90 58       	subi	r25, 0x80	; 128
     f84:	44 0f       	add	r20, r20
     f86:	55 1f       	adc	r21, r21
     f88:	59 f0       	breq	.+22     	; 0xfa0 <__fp_splitA+0x10>
     f8a:	5f 3f       	cpi	r21, 0xFF	; 255
     f8c:	71 f0       	breq	.+28     	; 0xfaa <__fp_splitA+0x1a>
     f8e:	47 95       	ror	r20

00000f90 <__fp_splitA>:
     f90:	88 0f       	add	r24, r24
     f92:	97 fb       	bst	r25, 7
     f94:	99 1f       	adc	r25, r25
     f96:	61 f0       	breq	.+24     	; 0xfb0 <__fp_splitA+0x20>
     f98:	9f 3f       	cpi	r25, 0xFF	; 255
     f9a:	79 f0       	breq	.+30     	; 0xfba <__fp_splitA+0x2a>
     f9c:	87 95       	ror	r24
     f9e:	08 95       	ret
     fa0:	12 16       	cp	r1, r18
     fa2:	13 06       	cpc	r1, r19
     fa4:	14 06       	cpc	r1, r20
     fa6:	55 1f       	adc	r21, r21
     fa8:	f2 cf       	rjmp	.-28     	; 0xf8e <__fp_split3+0xe>
     faa:	46 95       	lsr	r20
     fac:	f1 df       	rcall	.-30     	; 0xf90 <__fp_splitA>
     fae:	08 c0       	rjmp	.+16     	; 0xfc0 <__fp_splitA+0x30>
     fb0:	16 16       	cp	r1, r22
     fb2:	17 06       	cpc	r1, r23
     fb4:	18 06       	cpc	r1, r24
     fb6:	99 1f       	adc	r25, r25
     fb8:	f1 cf       	rjmp	.-30     	; 0xf9c <__fp_splitA+0xc>
     fba:	86 95       	lsr	r24
     fbc:	71 05       	cpc	r23, r1
     fbe:	61 05       	cpc	r22, r1
     fc0:	08 94       	sec
     fc2:	08 95       	ret

00000fc4 <__fp_zero>:
     fc4:	e8 94       	clt

00000fc6 <__fp_szero>:
     fc6:	bb 27       	eor	r27, r27
     fc8:	66 27       	eor	r22, r22
     fca:	77 27       	eor	r23, r23
     fcc:	cb 01       	movw	r24, r22
     fce:	97 f9       	bld	r25, 7
     fd0:	08 95       	ret

00000fd2 <vfprintf>:
     fd2:	a3 e1       	ldi	r26, 0x13	; 19
     fd4:	b0 e0       	ldi	r27, 0x00	; 0
     fd6:	ef ee       	ldi	r30, 0xEF	; 239
     fd8:	f7 e0       	ldi	r31, 0x07	; 7
     fda:	0c 94 92 0b 	jmp	0x1724	; 0x1724 <__prologue_saves__>
     fde:	6c 01       	movw	r12, r24
     fe0:	4b 01       	movw	r8, r22
     fe2:	2a 01       	movw	r4, r20
     fe4:	fc 01       	movw	r30, r24
     fe6:	17 82       	std	Z+7, r1	; 0x07
     fe8:	16 82       	std	Z+6, r1	; 0x06
     fea:	83 81       	ldd	r24, Z+3	; 0x03
     fec:	81 ff       	sbrs	r24, 1
     fee:	43 c3       	rjmp	.+1670   	; 0x1676 <vfprintf+0x6a4>
     ff0:	ae 01       	movw	r20, r28
     ff2:	4f 5f       	subi	r20, 0xFF	; 255
     ff4:	5f 4f       	sbci	r21, 0xFF	; 255
     ff6:	3a 01       	movw	r6, r20
     ff8:	f6 01       	movw	r30, r12
     ffa:	93 81       	ldd	r25, Z+3	; 0x03
     ffc:	f4 01       	movw	r30, r8
     ffe:	93 fd       	sbrc	r25, 3
    1000:	85 91       	lpm	r24, Z+
    1002:	93 ff       	sbrs	r25, 3
    1004:	81 91       	ld	r24, Z+
    1006:	4f 01       	movw	r8, r30
    1008:	88 23       	and	r24, r24
    100a:	09 f4       	brne	.+2      	; 0x100e <vfprintf+0x3c>
    100c:	30 c3       	rjmp	.+1632   	; 0x166e <vfprintf+0x69c>
    100e:	85 32       	cpi	r24, 0x25	; 37
    1010:	39 f4       	brne	.+14     	; 0x1020 <vfprintf+0x4e>
    1012:	93 fd       	sbrc	r25, 3
    1014:	85 91       	lpm	r24, Z+
    1016:	93 ff       	sbrs	r25, 3
    1018:	81 91       	ld	r24, Z+
    101a:	4f 01       	movw	r8, r30
    101c:	85 32       	cpi	r24, 0x25	; 37
    101e:	39 f4       	brne	.+14     	; 0x102e <vfprintf+0x5c>
    1020:	b6 01       	movw	r22, r12
    1022:	90 e0       	ldi	r25, 0x00	; 0
    1024:	0e 94 cc 0c 	call	0x1998	; 0x1998 <fputc>
    1028:	52 01       	movw	r10, r4
    102a:	25 01       	movw	r4, r10
    102c:	e5 cf       	rjmp	.-54     	; 0xff8 <vfprintf+0x26>
    102e:	10 e0       	ldi	r17, 0x00	; 0
    1030:	f1 2c       	mov	r15, r1
    1032:	20 e0       	ldi	r18, 0x00	; 0
    1034:	20 32       	cpi	r18, 0x20	; 32
    1036:	a0 f4       	brcc	.+40     	; 0x1060 <vfprintf+0x8e>
    1038:	8b 32       	cpi	r24, 0x2B	; 43
    103a:	69 f0       	breq	.+26     	; 0x1056 <vfprintf+0x84>
    103c:	30 f4       	brcc	.+12     	; 0x104a <vfprintf+0x78>
    103e:	80 32       	cpi	r24, 0x20	; 32
    1040:	59 f0       	breq	.+22     	; 0x1058 <vfprintf+0x86>
    1042:	83 32       	cpi	r24, 0x23	; 35
    1044:	69 f4       	brne	.+26     	; 0x1060 <vfprintf+0x8e>
    1046:	20 61       	ori	r18, 0x10	; 16
    1048:	2c c0       	rjmp	.+88     	; 0x10a2 <vfprintf+0xd0>
    104a:	8d 32       	cpi	r24, 0x2D	; 45
    104c:	39 f0       	breq	.+14     	; 0x105c <vfprintf+0x8a>
    104e:	80 33       	cpi	r24, 0x30	; 48
    1050:	39 f4       	brne	.+14     	; 0x1060 <vfprintf+0x8e>
    1052:	21 60       	ori	r18, 0x01	; 1
    1054:	26 c0       	rjmp	.+76     	; 0x10a2 <vfprintf+0xd0>
    1056:	22 60       	ori	r18, 0x02	; 2
    1058:	24 60       	ori	r18, 0x04	; 4
    105a:	23 c0       	rjmp	.+70     	; 0x10a2 <vfprintf+0xd0>
    105c:	28 60       	ori	r18, 0x08	; 8
    105e:	21 c0       	rjmp	.+66     	; 0x10a2 <vfprintf+0xd0>
    1060:	27 fd       	sbrc	r18, 7
    1062:	27 c0       	rjmp	.+78     	; 0x10b2 <vfprintf+0xe0>
    1064:	30 ed       	ldi	r19, 0xD0	; 208
    1066:	38 0f       	add	r19, r24
    1068:	3a 30       	cpi	r19, 0x0A	; 10
    106a:	78 f4       	brcc	.+30     	; 0x108a <vfprintf+0xb8>
    106c:	26 ff       	sbrs	r18, 6
    106e:	06 c0       	rjmp	.+12     	; 0x107c <vfprintf+0xaa>
    1070:	fa e0       	ldi	r31, 0x0A	; 10
    1072:	1f 9f       	mul	r17, r31
    1074:	30 0d       	add	r19, r0
    1076:	11 24       	eor	r1, r1
    1078:	13 2f       	mov	r17, r19
    107a:	13 c0       	rjmp	.+38     	; 0x10a2 <vfprintf+0xd0>
    107c:	4a e0       	ldi	r20, 0x0A	; 10
    107e:	f4 9e       	mul	r15, r20
    1080:	30 0d       	add	r19, r0
    1082:	11 24       	eor	r1, r1
    1084:	f3 2e       	mov	r15, r19
    1086:	20 62       	ori	r18, 0x20	; 32
    1088:	0c c0       	rjmp	.+24     	; 0x10a2 <vfprintf+0xd0>
    108a:	8e 32       	cpi	r24, 0x2E	; 46
    108c:	21 f4       	brne	.+8      	; 0x1096 <vfprintf+0xc4>
    108e:	26 fd       	sbrc	r18, 6
    1090:	ee c2       	rjmp	.+1500   	; 0x166e <vfprintf+0x69c>
    1092:	20 64       	ori	r18, 0x40	; 64
    1094:	06 c0       	rjmp	.+12     	; 0x10a2 <vfprintf+0xd0>
    1096:	8c 36       	cpi	r24, 0x6C	; 108
    1098:	11 f4       	brne	.+4      	; 0x109e <vfprintf+0xcc>
    109a:	20 68       	ori	r18, 0x80	; 128
    109c:	02 c0       	rjmp	.+4      	; 0x10a2 <vfprintf+0xd0>
    109e:	88 36       	cpi	r24, 0x68	; 104
    10a0:	41 f4       	brne	.+16     	; 0x10b2 <vfprintf+0xe0>
    10a2:	f4 01       	movw	r30, r8
    10a4:	93 fd       	sbrc	r25, 3
    10a6:	85 91       	lpm	r24, Z+
    10a8:	93 ff       	sbrs	r25, 3
    10aa:	81 91       	ld	r24, Z+
    10ac:	4f 01       	movw	r8, r30
    10ae:	81 11       	cpse	r24, r1
    10b0:	c1 cf       	rjmp	.-126    	; 0x1034 <vfprintf+0x62>
    10b2:	9b eb       	ldi	r25, 0xBB	; 187
    10b4:	98 0f       	add	r25, r24
    10b6:	93 30       	cpi	r25, 0x03	; 3
    10b8:	18 f4       	brcc	.+6      	; 0x10c0 <vfprintf+0xee>
    10ba:	20 61       	ori	r18, 0x10	; 16
    10bc:	80 5e       	subi	r24, 0xE0	; 224
    10be:	06 c0       	rjmp	.+12     	; 0x10cc <vfprintf+0xfa>
    10c0:	9b e9       	ldi	r25, 0x9B	; 155
    10c2:	98 0f       	add	r25, r24
    10c4:	93 30       	cpi	r25, 0x03	; 3
    10c6:	08 f0       	brcs	.+2      	; 0x10ca <vfprintf+0xf8>
    10c8:	71 c1       	rjmp	.+738    	; 0x13ac <vfprintf+0x3da>
    10ca:	2f 7e       	andi	r18, 0xEF	; 239
    10cc:	26 ff       	sbrs	r18, 6
    10ce:	16 e0       	ldi	r17, 0x06	; 6
    10d0:	2f 73       	andi	r18, 0x3F	; 63
    10d2:	32 2e       	mov	r3, r18
    10d4:	85 36       	cpi	r24, 0x65	; 101
    10d6:	19 f4       	brne	.+6      	; 0x10de <vfprintf+0x10c>
    10d8:	20 64       	ori	r18, 0x40	; 64
    10da:	32 2e       	mov	r3, r18
    10dc:	08 c0       	rjmp	.+16     	; 0x10ee <vfprintf+0x11c>
    10de:	86 36       	cpi	r24, 0x66	; 102
    10e0:	21 f4       	brne	.+8      	; 0x10ea <vfprintf+0x118>
    10e2:	f2 2f       	mov	r31, r18
    10e4:	f0 68       	ori	r31, 0x80	; 128
    10e6:	3f 2e       	mov	r3, r31
    10e8:	02 c0       	rjmp	.+4      	; 0x10ee <vfprintf+0x11c>
    10ea:	11 11       	cpse	r17, r1
    10ec:	11 50       	subi	r17, 0x01	; 1
    10ee:	37 fe       	sbrs	r3, 7
    10f0:	07 c0       	rjmp	.+14     	; 0x1100 <vfprintf+0x12e>
    10f2:	1c 33       	cpi	r17, 0x3C	; 60
    10f4:	50 f4       	brcc	.+20     	; 0x110a <vfprintf+0x138>
    10f6:	ee 24       	eor	r14, r14
    10f8:	e3 94       	inc	r14
    10fa:	e1 0e       	add	r14, r17
    10fc:	27 e0       	ldi	r18, 0x07	; 7
    10fe:	0b c0       	rjmp	.+22     	; 0x1116 <vfprintf+0x144>
    1100:	18 30       	cpi	r17, 0x08	; 8
    1102:	38 f0       	brcs	.+14     	; 0x1112 <vfprintf+0x140>
    1104:	27 e0       	ldi	r18, 0x07	; 7
    1106:	17 e0       	ldi	r17, 0x07	; 7
    1108:	05 c0       	rjmp	.+10     	; 0x1114 <vfprintf+0x142>
    110a:	27 e0       	ldi	r18, 0x07	; 7
    110c:	4c e3       	ldi	r20, 0x3C	; 60
    110e:	e4 2e       	mov	r14, r20
    1110:	02 c0       	rjmp	.+4      	; 0x1116 <vfprintf+0x144>
    1112:	21 2f       	mov	r18, r17
    1114:	e1 2c       	mov	r14, r1
    1116:	52 01       	movw	r10, r4
    1118:	44 e0       	ldi	r20, 0x04	; 4
    111a:	a4 0e       	add	r10, r20
    111c:	b1 1c       	adc	r11, r1
    111e:	f2 01       	movw	r30, r4
    1120:	60 81       	ld	r22, Z
    1122:	71 81       	ldd	r23, Z+1	; 0x01
    1124:	82 81       	ldd	r24, Z+2	; 0x02
    1126:	93 81       	ldd	r25, Z+3	; 0x03
    1128:	0e 2d       	mov	r16, r14
    112a:	a3 01       	movw	r20, r6
    112c:	0e 94 de 0b 	call	0x17bc	; 0x17bc <__ftoa_engine>
    1130:	2c 01       	movw	r4, r24
    1132:	09 81       	ldd	r16, Y+1	; 0x01
    1134:	00 ff       	sbrs	r16, 0
    1136:	02 c0       	rjmp	.+4      	; 0x113c <vfprintf+0x16a>
    1138:	03 ff       	sbrs	r16, 3
    113a:	07 c0       	rjmp	.+14     	; 0x114a <vfprintf+0x178>
    113c:	31 fc       	sbrc	r3, 1
    113e:	08 c0       	rjmp	.+16     	; 0x1150 <vfprintf+0x17e>
    1140:	32 fe       	sbrs	r3, 2
    1142:	09 c0       	rjmp	.+18     	; 0x1156 <vfprintf+0x184>
    1144:	30 e2       	ldi	r19, 0x20	; 32
    1146:	23 2e       	mov	r2, r19
    1148:	07 c0       	rjmp	.+14     	; 0x1158 <vfprintf+0x186>
    114a:	2d e2       	ldi	r18, 0x2D	; 45
    114c:	22 2e       	mov	r2, r18
    114e:	04 c0       	rjmp	.+8      	; 0x1158 <vfprintf+0x186>
    1150:	9b e2       	ldi	r25, 0x2B	; 43
    1152:	29 2e       	mov	r2, r25
    1154:	01 c0       	rjmp	.+2      	; 0x1158 <vfprintf+0x186>
    1156:	21 2c       	mov	r2, r1
    1158:	80 2f       	mov	r24, r16
    115a:	8c 70       	andi	r24, 0x0C	; 12
    115c:	19 f0       	breq	.+6      	; 0x1164 <vfprintf+0x192>
    115e:	21 10       	cpse	r2, r1
    1160:	68 c2       	rjmp	.+1232   	; 0x1632 <vfprintf+0x660>
    1162:	a8 c2       	rjmp	.+1360   	; 0x16b4 <vfprintf+0x6e2>
    1164:	37 fe       	sbrs	r3, 7
    1166:	0f c0       	rjmp	.+30     	; 0x1186 <vfprintf+0x1b4>
    1168:	e4 0c       	add	r14, r4
    116a:	04 ff       	sbrs	r16, 4
    116c:	04 c0       	rjmp	.+8      	; 0x1176 <vfprintf+0x1a4>
    116e:	8a 81       	ldd	r24, Y+2	; 0x02
    1170:	81 33       	cpi	r24, 0x31	; 49
    1172:	09 f4       	brne	.+2      	; 0x1176 <vfprintf+0x1a4>
    1174:	ea 94       	dec	r14
    1176:	1e 14       	cp	r1, r14
    1178:	74 f5       	brge	.+92     	; 0x11d6 <vfprintf+0x204>
    117a:	f8 e0       	ldi	r31, 0x08	; 8
    117c:	fe 15       	cp	r31, r14
    117e:	78 f5       	brcc	.+94     	; 0x11de <vfprintf+0x20c>
    1180:	88 e0       	ldi	r24, 0x08	; 8
    1182:	e8 2e       	mov	r14, r24
    1184:	2c c0       	rjmp	.+88     	; 0x11de <vfprintf+0x20c>
    1186:	36 fc       	sbrc	r3, 6
    1188:	2a c0       	rjmp	.+84     	; 0x11de <vfprintf+0x20c>
    118a:	81 2f       	mov	r24, r17
    118c:	90 e0       	ldi	r25, 0x00	; 0
    118e:	84 15       	cp	r24, r4
    1190:	95 05       	cpc	r25, r5
    1192:	9c f0       	brlt	.+38     	; 0x11ba <vfprintf+0x1e8>
    1194:	2c ef       	ldi	r18, 0xFC	; 252
    1196:	42 16       	cp	r4, r18
    1198:	2f ef       	ldi	r18, 0xFF	; 255
    119a:	52 06       	cpc	r5, r18
    119c:	74 f0       	brlt	.+28     	; 0x11ba <vfprintf+0x1e8>
    119e:	43 2d       	mov	r20, r3
    11a0:	40 68       	ori	r20, 0x80	; 128
    11a2:	34 2e       	mov	r3, r20
    11a4:	0a c0       	rjmp	.+20     	; 0x11ba <vfprintf+0x1e8>
    11a6:	e2 e0       	ldi	r30, 0x02	; 2
    11a8:	f0 e0       	ldi	r31, 0x00	; 0
    11aa:	ec 0f       	add	r30, r28
    11ac:	fd 1f       	adc	r31, r29
    11ae:	e1 0f       	add	r30, r17
    11b0:	f1 1d       	adc	r31, r1
    11b2:	80 81       	ld	r24, Z
    11b4:	80 33       	cpi	r24, 0x30	; 48
    11b6:	19 f4       	brne	.+6      	; 0x11be <vfprintf+0x1ec>
    11b8:	11 50       	subi	r17, 0x01	; 1
    11ba:	11 11       	cpse	r17, r1
    11bc:	f4 cf       	rjmp	.-24     	; 0x11a6 <vfprintf+0x1d4>
    11be:	37 fe       	sbrs	r3, 7
    11c0:	0e c0       	rjmp	.+28     	; 0x11de <vfprintf+0x20c>
    11c2:	ee 24       	eor	r14, r14
    11c4:	e3 94       	inc	r14
    11c6:	e1 0e       	add	r14, r17
    11c8:	81 2f       	mov	r24, r17
    11ca:	90 e0       	ldi	r25, 0x00	; 0
    11cc:	48 16       	cp	r4, r24
    11ce:	59 06       	cpc	r5, r25
    11d0:	2c f4       	brge	.+10     	; 0x11dc <vfprintf+0x20a>
    11d2:	14 19       	sub	r17, r4
    11d4:	04 c0       	rjmp	.+8      	; 0x11de <vfprintf+0x20c>
    11d6:	ee 24       	eor	r14, r14
    11d8:	e3 94       	inc	r14
    11da:	01 c0       	rjmp	.+2      	; 0x11de <vfprintf+0x20c>
    11dc:	10 e0       	ldi	r17, 0x00	; 0
    11de:	37 fe       	sbrs	r3, 7
    11e0:	06 c0       	rjmp	.+12     	; 0x11ee <vfprintf+0x21c>
    11e2:	14 14       	cp	r1, r4
    11e4:	15 04       	cpc	r1, r5
    11e6:	34 f4       	brge	.+12     	; 0x11f4 <vfprintf+0x222>
    11e8:	c2 01       	movw	r24, r4
    11ea:	01 96       	adiw	r24, 0x01	; 1
    11ec:	05 c0       	rjmp	.+10     	; 0x11f8 <vfprintf+0x226>
    11ee:	85 e0       	ldi	r24, 0x05	; 5
    11f0:	90 e0       	ldi	r25, 0x00	; 0
    11f2:	02 c0       	rjmp	.+4      	; 0x11f8 <vfprintf+0x226>
    11f4:	81 e0       	ldi	r24, 0x01	; 1
    11f6:	90 e0       	ldi	r25, 0x00	; 0
    11f8:	21 10       	cpse	r2, r1
    11fa:	01 96       	adiw	r24, 0x01	; 1
    11fc:	11 23       	and	r17, r17
    11fe:	31 f0       	breq	.+12     	; 0x120c <vfprintf+0x23a>
    1200:	21 2f       	mov	r18, r17
    1202:	30 e0       	ldi	r19, 0x00	; 0
    1204:	2f 5f       	subi	r18, 0xFF	; 255
    1206:	3f 4f       	sbci	r19, 0xFF	; 255
    1208:	82 0f       	add	r24, r18
    120a:	93 1f       	adc	r25, r19
    120c:	2f 2d       	mov	r18, r15
    120e:	30 e0       	ldi	r19, 0x00	; 0
    1210:	82 17       	cp	r24, r18
    1212:	93 07       	cpc	r25, r19
    1214:	14 f4       	brge	.+4      	; 0x121a <vfprintf+0x248>
    1216:	f8 1a       	sub	r15, r24
    1218:	01 c0       	rjmp	.+2      	; 0x121c <vfprintf+0x24a>
    121a:	f1 2c       	mov	r15, r1
    121c:	83 2d       	mov	r24, r3
    121e:	89 70       	andi	r24, 0x09	; 9
    1220:	49 f4       	brne	.+18     	; 0x1234 <vfprintf+0x262>
    1222:	ff 20       	and	r15, r15
    1224:	39 f0       	breq	.+14     	; 0x1234 <vfprintf+0x262>
    1226:	b6 01       	movw	r22, r12
    1228:	80 e2       	ldi	r24, 0x20	; 32
    122a:	90 e0       	ldi	r25, 0x00	; 0
    122c:	0e 94 cc 0c 	call	0x1998	; 0x1998 <fputc>
    1230:	fa 94       	dec	r15
    1232:	f7 cf       	rjmp	.-18     	; 0x1222 <vfprintf+0x250>
    1234:	22 20       	and	r2, r2
    1236:	29 f0       	breq	.+10     	; 0x1242 <vfprintf+0x270>
    1238:	b6 01       	movw	r22, r12
    123a:	82 2d       	mov	r24, r2
    123c:	90 e0       	ldi	r25, 0x00	; 0
    123e:	0e 94 cc 0c 	call	0x1998	; 0x1998 <fputc>
    1242:	33 fc       	sbrc	r3, 3
    1244:	09 c0       	rjmp	.+18     	; 0x1258 <vfprintf+0x286>
    1246:	ff 20       	and	r15, r15
    1248:	39 f0       	breq	.+14     	; 0x1258 <vfprintf+0x286>
    124a:	b6 01       	movw	r22, r12
    124c:	80 e3       	ldi	r24, 0x30	; 48
    124e:	90 e0       	ldi	r25, 0x00	; 0
    1250:	0e 94 cc 0c 	call	0x1998	; 0x1998 <fputc>
    1254:	fa 94       	dec	r15
    1256:	f7 cf       	rjmp	.-18     	; 0x1246 <vfprintf+0x274>
    1258:	37 fe       	sbrs	r3, 7
    125a:	5a c0       	rjmp	.+180    	; 0x1310 <vfprintf+0x33e>
    125c:	94 2d       	mov	r25, r4
    125e:	85 2d       	mov	r24, r5
    1260:	57 fe       	sbrs	r5, 7
    1262:	02 c0       	rjmp	.+4      	; 0x1268 <vfprintf+0x296>
    1264:	90 e0       	ldi	r25, 0x00	; 0
    1266:	80 e0       	ldi	r24, 0x00	; 0
    1268:	29 2e       	mov	r2, r25
    126a:	38 2e       	mov	r3, r24
    126c:	20 e0       	ldi	r18, 0x00	; 0
    126e:	30 e0       	ldi	r19, 0x00	; 0
    1270:	a2 01       	movw	r20, r4
    1272:	4e 19       	sub	r20, r14
    1274:	51 09       	sbc	r21, r1
    1276:	5d 87       	std	Y+13, r21	; 0x0d
    1278:	4c 87       	std	Y+12, r20	; 0x0c
    127a:	a2 01       	movw	r20, r4
    127c:	42 19       	sub	r20, r2
    127e:	53 09       	sbc	r21, r3
    1280:	5f 87       	std	Y+15, r21	; 0x0f
    1282:	4e 87       	std	Y+14, r20	; 0x0e
    1284:	61 2f       	mov	r22, r17
    1286:	70 e0       	ldi	r23, 0x00	; 0
    1288:	44 27       	eor	r20, r20
    128a:	55 27       	eor	r21, r21
    128c:	46 1b       	sub	r20, r22
    128e:	57 0b       	sbc	r21, r23
    1290:	59 8b       	std	Y+17, r21	; 0x11
    1292:	48 8b       	std	Y+16, r20	; 0x10
    1294:	5f ef       	ldi	r21, 0xFF	; 255
    1296:	25 16       	cp	r2, r21
    1298:	35 06       	cpc	r3, r21
    129a:	49 f4       	brne	.+18     	; 0x12ae <vfprintf+0x2dc>
    129c:	b6 01       	movw	r22, r12
    129e:	8e e2       	ldi	r24, 0x2E	; 46
    12a0:	90 e0       	ldi	r25, 0x00	; 0
    12a2:	2a 8b       	std	Y+18, r18	; 0x12
    12a4:	3b 8b       	std	Y+19, r19	; 0x13
    12a6:	0e 94 cc 0c 	call	0x1998	; 0x1998 <fputc>
    12aa:	3b 89       	ldd	r19, Y+19	; 0x13
    12ac:	2a 89       	ldd	r18, Y+18	; 0x12
    12ae:	42 14       	cp	r4, r2
    12b0:	53 04       	cpc	r5, r3
    12b2:	6c f0       	brlt	.+26     	; 0x12ce <vfprintf+0x2fc>
    12b4:	4c 85       	ldd	r20, Y+12	; 0x0c
    12b6:	5d 85       	ldd	r21, Y+13	; 0x0d
    12b8:	42 15       	cp	r20, r2
    12ba:	53 05       	cpc	r21, r3
    12bc:	44 f4       	brge	.+16     	; 0x12ce <vfprintf+0x2fc>
    12be:	ee 85       	ldd	r30, Y+14	; 0x0e
    12c0:	ff 85       	ldd	r31, Y+15	; 0x0f
    12c2:	e2 0f       	add	r30, r18
    12c4:	f3 1f       	adc	r31, r19
    12c6:	e6 0d       	add	r30, r6
    12c8:	f7 1d       	adc	r31, r7
    12ca:	81 81       	ldd	r24, Z+1	; 0x01
    12cc:	01 c0       	rjmp	.+2      	; 0x12d0 <vfprintf+0x2fe>
    12ce:	80 e3       	ldi	r24, 0x30	; 48
    12d0:	51 e0       	ldi	r21, 0x01	; 1
    12d2:	25 1a       	sub	r2, r21
    12d4:	31 08       	sbc	r3, r1
    12d6:	2f 5f       	subi	r18, 0xFF	; 255
    12d8:	3f 4f       	sbci	r19, 0xFF	; 255
    12da:	48 89       	ldd	r20, Y+16	; 0x10
    12dc:	59 89       	ldd	r21, Y+17	; 0x11
    12de:	24 16       	cp	r2, r20
    12e0:	35 06       	cpc	r3, r21
    12e2:	4c f0       	brlt	.+18     	; 0x12f6 <vfprintf+0x324>
    12e4:	b6 01       	movw	r22, r12
    12e6:	90 e0       	ldi	r25, 0x00	; 0
    12e8:	2a 8b       	std	Y+18, r18	; 0x12
    12ea:	3b 8b       	std	Y+19, r19	; 0x13
    12ec:	0e 94 cc 0c 	call	0x1998	; 0x1998 <fputc>
    12f0:	2a 89       	ldd	r18, Y+18	; 0x12
    12f2:	3b 89       	ldd	r19, Y+19	; 0x13
    12f4:	cf cf       	rjmp	.-98     	; 0x1294 <vfprintf+0x2c2>
    12f6:	24 14       	cp	r2, r4
    12f8:	35 04       	cpc	r3, r5
    12fa:	39 f4       	brne	.+14     	; 0x130a <vfprintf+0x338>
    12fc:	9a 81       	ldd	r25, Y+2	; 0x02
    12fe:	96 33       	cpi	r25, 0x36	; 54
    1300:	18 f4       	brcc	.+6      	; 0x1308 <vfprintf+0x336>
    1302:	95 33       	cpi	r25, 0x35	; 53
    1304:	11 f4       	brne	.+4      	; 0x130a <vfprintf+0x338>
    1306:	04 ff       	sbrs	r16, 4
    1308:	81 e3       	ldi	r24, 0x31	; 49
    130a:	b6 01       	movw	r22, r12
    130c:	90 e0       	ldi	r25, 0x00	; 0
    130e:	4b c0       	rjmp	.+150    	; 0x13a6 <vfprintf+0x3d4>
    1310:	8a 81       	ldd	r24, Y+2	; 0x02
    1312:	81 33       	cpi	r24, 0x31	; 49
    1314:	09 f0       	breq	.+2      	; 0x1318 <vfprintf+0x346>
    1316:	0f 7e       	andi	r16, 0xEF	; 239
    1318:	b6 01       	movw	r22, r12
    131a:	90 e0       	ldi	r25, 0x00	; 0
    131c:	0e 94 cc 0c 	call	0x1998	; 0x1998 <fputc>
    1320:	11 11       	cpse	r17, r1
    1322:	05 c0       	rjmp	.+10     	; 0x132e <vfprintf+0x35c>
    1324:	34 fc       	sbrc	r3, 4
    1326:	18 c0       	rjmp	.+48     	; 0x1358 <vfprintf+0x386>
    1328:	85 e6       	ldi	r24, 0x65	; 101
    132a:	90 e0       	ldi	r25, 0x00	; 0
    132c:	17 c0       	rjmp	.+46     	; 0x135c <vfprintf+0x38a>
    132e:	b6 01       	movw	r22, r12
    1330:	8e e2       	ldi	r24, 0x2E	; 46
    1332:	90 e0       	ldi	r25, 0x00	; 0
    1334:	0e 94 cc 0c 	call	0x1998	; 0x1998 <fputc>
    1338:	82 e0       	ldi	r24, 0x02	; 2
    133a:	ee 24       	eor	r14, r14
    133c:	e3 94       	inc	r14
    133e:	e8 0e       	add	r14, r24
    1340:	f3 01       	movw	r30, r6
    1342:	e8 0f       	add	r30, r24
    1344:	f1 1d       	adc	r31, r1
    1346:	80 81       	ld	r24, Z
    1348:	b6 01       	movw	r22, r12
    134a:	90 e0       	ldi	r25, 0x00	; 0
    134c:	0e 94 cc 0c 	call	0x1998	; 0x1998 <fputc>
    1350:	11 50       	subi	r17, 0x01	; 1
    1352:	8e 2d       	mov	r24, r14
    1354:	91 f7       	brne	.-28     	; 0x133a <vfprintf+0x368>
    1356:	e6 cf       	rjmp	.-52     	; 0x1324 <vfprintf+0x352>
    1358:	85 e4       	ldi	r24, 0x45	; 69
    135a:	90 e0       	ldi	r25, 0x00	; 0
    135c:	b6 01       	movw	r22, r12
    135e:	0e 94 cc 0c 	call	0x1998	; 0x1998 <fputc>
    1362:	57 fc       	sbrc	r5, 7
    1364:	05 c0       	rjmp	.+10     	; 0x1370 <vfprintf+0x39e>
    1366:	41 14       	cp	r4, r1
    1368:	51 04       	cpc	r5, r1
    136a:	39 f4       	brne	.+14     	; 0x137a <vfprintf+0x3a8>
    136c:	04 ff       	sbrs	r16, 4
    136e:	05 c0       	rjmp	.+10     	; 0x137a <vfprintf+0x3a8>
    1370:	51 94       	neg	r5
    1372:	41 94       	neg	r4
    1374:	51 08       	sbc	r5, r1
    1376:	8d e2       	ldi	r24, 0x2D	; 45
    1378:	01 c0       	rjmp	.+2      	; 0x137c <vfprintf+0x3aa>
    137a:	8b e2       	ldi	r24, 0x2B	; 43
    137c:	b6 01       	movw	r22, r12
    137e:	90 e0       	ldi	r25, 0x00	; 0
    1380:	0e 94 cc 0c 	call	0x1998	; 0x1998 <fputc>
    1384:	80 e3       	ldi	r24, 0x30	; 48
    1386:	9a e0       	ldi	r25, 0x0A	; 10
    1388:	49 16       	cp	r4, r25
    138a:	51 04       	cpc	r5, r1
    138c:	2c f0       	brlt	.+10     	; 0x1398 <vfprintf+0x3c6>
    138e:	8f 5f       	subi	r24, 0xFF	; 255
    1390:	5a e0       	ldi	r21, 0x0A	; 10
    1392:	45 1a       	sub	r4, r21
    1394:	51 08       	sbc	r5, r1
    1396:	f7 cf       	rjmp	.-18     	; 0x1386 <vfprintf+0x3b4>
    1398:	b6 01       	movw	r22, r12
    139a:	90 e0       	ldi	r25, 0x00	; 0
    139c:	0e 94 cc 0c 	call	0x1998	; 0x1998 <fputc>
    13a0:	b6 01       	movw	r22, r12
    13a2:	c2 01       	movw	r24, r4
    13a4:	c0 96       	adiw	r24, 0x30	; 48
    13a6:	0e 94 cc 0c 	call	0x1998	; 0x1998 <fputc>
    13aa:	57 c1       	rjmp	.+686    	; 0x165a <vfprintf+0x688>
    13ac:	83 36       	cpi	r24, 0x63	; 99
    13ae:	31 f0       	breq	.+12     	; 0x13bc <vfprintf+0x3ea>
    13b0:	83 37       	cpi	r24, 0x73	; 115
    13b2:	79 f0       	breq	.+30     	; 0x13d2 <vfprintf+0x400>
    13b4:	83 35       	cpi	r24, 0x53	; 83
    13b6:	09 f0       	breq	.+2      	; 0x13ba <vfprintf+0x3e8>
    13b8:	58 c0       	rjmp	.+176    	; 0x146a <vfprintf+0x498>
    13ba:	21 c0       	rjmp	.+66     	; 0x13fe <vfprintf+0x42c>
    13bc:	52 01       	movw	r10, r4
    13be:	e2 e0       	ldi	r30, 0x02	; 2
    13c0:	ae 0e       	add	r10, r30
    13c2:	b1 1c       	adc	r11, r1
    13c4:	f2 01       	movw	r30, r4
    13c6:	80 81       	ld	r24, Z
    13c8:	89 83       	std	Y+1, r24	; 0x01
    13ca:	01 e0       	ldi	r16, 0x01	; 1
    13cc:	10 e0       	ldi	r17, 0x00	; 0
    13ce:	23 01       	movw	r4, r6
    13d0:	14 c0       	rjmp	.+40     	; 0x13fa <vfprintf+0x428>
    13d2:	52 01       	movw	r10, r4
    13d4:	f2 e0       	ldi	r31, 0x02	; 2
    13d6:	af 0e       	add	r10, r31
    13d8:	b1 1c       	adc	r11, r1
    13da:	f2 01       	movw	r30, r4
    13dc:	40 80       	ld	r4, Z
    13de:	51 80       	ldd	r5, Z+1	; 0x01
    13e0:	26 ff       	sbrs	r18, 6
    13e2:	03 c0       	rjmp	.+6      	; 0x13ea <vfprintf+0x418>
    13e4:	61 2f       	mov	r22, r17
    13e6:	70 e0       	ldi	r23, 0x00	; 0
    13e8:	02 c0       	rjmp	.+4      	; 0x13ee <vfprintf+0x41c>
    13ea:	6f ef       	ldi	r22, 0xFF	; 255
    13ec:	7f ef       	ldi	r23, 0xFF	; 255
    13ee:	c2 01       	movw	r24, r4
    13f0:	2a 8b       	std	Y+18, r18	; 0x12
    13f2:	0e 94 c1 0c 	call	0x1982	; 0x1982 <strnlen>
    13f6:	8c 01       	movw	r16, r24
    13f8:	2a 89       	ldd	r18, Y+18	; 0x12
    13fa:	2f 77       	andi	r18, 0x7F	; 127
    13fc:	15 c0       	rjmp	.+42     	; 0x1428 <vfprintf+0x456>
    13fe:	52 01       	movw	r10, r4
    1400:	f2 e0       	ldi	r31, 0x02	; 2
    1402:	af 0e       	add	r10, r31
    1404:	b1 1c       	adc	r11, r1
    1406:	f2 01       	movw	r30, r4
    1408:	40 80       	ld	r4, Z
    140a:	51 80       	ldd	r5, Z+1	; 0x01
    140c:	26 ff       	sbrs	r18, 6
    140e:	03 c0       	rjmp	.+6      	; 0x1416 <vfprintf+0x444>
    1410:	61 2f       	mov	r22, r17
    1412:	70 e0       	ldi	r23, 0x00	; 0
    1414:	02 c0       	rjmp	.+4      	; 0x141a <vfprintf+0x448>
    1416:	6f ef       	ldi	r22, 0xFF	; 255
    1418:	7f ef       	ldi	r23, 0xFF	; 255
    141a:	c2 01       	movw	r24, r4
    141c:	2a 8b       	std	Y+18, r18	; 0x12
    141e:	0e 94 b6 0c 	call	0x196c	; 0x196c <strnlen_P>
    1422:	8c 01       	movw	r16, r24
    1424:	2a 89       	ldd	r18, Y+18	; 0x12
    1426:	20 68       	ori	r18, 0x80	; 128
    1428:	32 2e       	mov	r3, r18
    142a:	23 fd       	sbrc	r18, 3
    142c:	1a c0       	rjmp	.+52     	; 0x1462 <vfprintf+0x490>
    142e:	8f 2d       	mov	r24, r15
    1430:	90 e0       	ldi	r25, 0x00	; 0
    1432:	08 17       	cp	r16, r24
    1434:	19 07       	cpc	r17, r25
    1436:	a8 f4       	brcc	.+42     	; 0x1462 <vfprintf+0x490>
    1438:	b6 01       	movw	r22, r12
    143a:	80 e2       	ldi	r24, 0x20	; 32
    143c:	90 e0       	ldi	r25, 0x00	; 0
    143e:	0e 94 cc 0c 	call	0x1998	; 0x1998 <fputc>
    1442:	fa 94       	dec	r15
    1444:	f4 cf       	rjmp	.-24     	; 0x142e <vfprintf+0x45c>
    1446:	f2 01       	movw	r30, r4
    1448:	37 fc       	sbrc	r3, 7
    144a:	85 91       	lpm	r24, Z+
    144c:	37 fe       	sbrs	r3, 7
    144e:	81 91       	ld	r24, Z+
    1450:	2f 01       	movw	r4, r30
    1452:	b6 01       	movw	r22, r12
    1454:	90 e0       	ldi	r25, 0x00	; 0
    1456:	0e 94 cc 0c 	call	0x1998	; 0x1998 <fputc>
    145a:	f1 10       	cpse	r15, r1
    145c:	fa 94       	dec	r15
    145e:	01 50       	subi	r16, 0x01	; 1
    1460:	11 09       	sbc	r17, r1
    1462:	01 15       	cp	r16, r1
    1464:	11 05       	cpc	r17, r1
    1466:	79 f7       	brne	.-34     	; 0x1446 <vfprintf+0x474>
    1468:	f8 c0       	rjmp	.+496    	; 0x165a <vfprintf+0x688>
    146a:	84 36       	cpi	r24, 0x64	; 100
    146c:	11 f0       	breq	.+4      	; 0x1472 <vfprintf+0x4a0>
    146e:	89 36       	cpi	r24, 0x69	; 105
    1470:	59 f5       	brne	.+86     	; 0x14c8 <vfprintf+0x4f6>
    1472:	52 01       	movw	r10, r4
    1474:	27 ff       	sbrs	r18, 7
    1476:	09 c0       	rjmp	.+18     	; 0x148a <vfprintf+0x4b8>
    1478:	f4 e0       	ldi	r31, 0x04	; 4
    147a:	af 0e       	add	r10, r31
    147c:	b1 1c       	adc	r11, r1
    147e:	f2 01       	movw	r30, r4
    1480:	60 81       	ld	r22, Z
    1482:	71 81       	ldd	r23, Z+1	; 0x01
    1484:	82 81       	ldd	r24, Z+2	; 0x02
    1486:	93 81       	ldd	r25, Z+3	; 0x03
    1488:	0a c0       	rjmp	.+20     	; 0x149e <vfprintf+0x4cc>
    148a:	f2 e0       	ldi	r31, 0x02	; 2
    148c:	af 0e       	add	r10, r31
    148e:	b1 1c       	adc	r11, r1
    1490:	f2 01       	movw	r30, r4
    1492:	60 81       	ld	r22, Z
    1494:	71 81       	ldd	r23, Z+1	; 0x01
    1496:	07 2e       	mov	r0, r23
    1498:	00 0c       	add	r0, r0
    149a:	88 0b       	sbc	r24, r24
    149c:	99 0b       	sbc	r25, r25
    149e:	2f 76       	andi	r18, 0x6F	; 111
    14a0:	32 2e       	mov	r3, r18
    14a2:	97 ff       	sbrs	r25, 7
    14a4:	09 c0       	rjmp	.+18     	; 0x14b8 <vfprintf+0x4e6>
    14a6:	90 95       	com	r25
    14a8:	80 95       	com	r24
    14aa:	70 95       	com	r23
    14ac:	61 95       	neg	r22
    14ae:	7f 4f       	sbci	r23, 0xFF	; 255
    14b0:	8f 4f       	sbci	r24, 0xFF	; 255
    14b2:	9f 4f       	sbci	r25, 0xFF	; 255
    14b4:	20 68       	ori	r18, 0x80	; 128
    14b6:	32 2e       	mov	r3, r18
    14b8:	2a e0       	ldi	r18, 0x0A	; 10
    14ba:	30 e0       	ldi	r19, 0x00	; 0
    14bc:	a3 01       	movw	r20, r6
    14be:	0e 94 27 0d 	call	0x1a4e	; 0x1a4e <__ultoa_invert>
    14c2:	e8 2e       	mov	r14, r24
    14c4:	e6 18       	sub	r14, r6
    14c6:	3f c0       	rjmp	.+126    	; 0x1546 <vfprintf+0x574>
    14c8:	02 2f       	mov	r16, r18
    14ca:	85 37       	cpi	r24, 0x75	; 117
    14cc:	21 f4       	brne	.+8      	; 0x14d6 <vfprintf+0x504>
    14ce:	0f 7e       	andi	r16, 0xEF	; 239
    14d0:	2a e0       	ldi	r18, 0x0A	; 10
    14d2:	30 e0       	ldi	r19, 0x00	; 0
    14d4:	1d c0       	rjmp	.+58     	; 0x1510 <vfprintf+0x53e>
    14d6:	09 7f       	andi	r16, 0xF9	; 249
    14d8:	8f 36       	cpi	r24, 0x6F	; 111
    14da:	91 f0       	breq	.+36     	; 0x1500 <vfprintf+0x52e>
    14dc:	18 f4       	brcc	.+6      	; 0x14e4 <vfprintf+0x512>
    14de:	88 35       	cpi	r24, 0x58	; 88
    14e0:	59 f0       	breq	.+22     	; 0x14f8 <vfprintf+0x526>
    14e2:	c5 c0       	rjmp	.+394    	; 0x166e <vfprintf+0x69c>
    14e4:	80 37       	cpi	r24, 0x70	; 112
    14e6:	19 f0       	breq	.+6      	; 0x14ee <vfprintf+0x51c>
    14e8:	88 37       	cpi	r24, 0x78	; 120
    14ea:	11 f0       	breq	.+4      	; 0x14f0 <vfprintf+0x51e>
    14ec:	c0 c0       	rjmp	.+384    	; 0x166e <vfprintf+0x69c>
    14ee:	00 61       	ori	r16, 0x10	; 16
    14f0:	04 ff       	sbrs	r16, 4
    14f2:	09 c0       	rjmp	.+18     	; 0x1506 <vfprintf+0x534>
    14f4:	04 60       	ori	r16, 0x04	; 4
    14f6:	07 c0       	rjmp	.+14     	; 0x1506 <vfprintf+0x534>
    14f8:	24 ff       	sbrs	r18, 4
    14fa:	08 c0       	rjmp	.+16     	; 0x150c <vfprintf+0x53a>
    14fc:	06 60       	ori	r16, 0x06	; 6
    14fe:	06 c0       	rjmp	.+12     	; 0x150c <vfprintf+0x53a>
    1500:	28 e0       	ldi	r18, 0x08	; 8
    1502:	30 e0       	ldi	r19, 0x00	; 0
    1504:	05 c0       	rjmp	.+10     	; 0x1510 <vfprintf+0x53e>
    1506:	20 e1       	ldi	r18, 0x10	; 16
    1508:	30 e0       	ldi	r19, 0x00	; 0
    150a:	02 c0       	rjmp	.+4      	; 0x1510 <vfprintf+0x53e>
    150c:	20 e1       	ldi	r18, 0x10	; 16
    150e:	32 e0       	ldi	r19, 0x02	; 2
    1510:	52 01       	movw	r10, r4
    1512:	07 ff       	sbrs	r16, 7
    1514:	09 c0       	rjmp	.+18     	; 0x1528 <vfprintf+0x556>
    1516:	f4 e0       	ldi	r31, 0x04	; 4
    1518:	af 0e       	add	r10, r31
    151a:	b1 1c       	adc	r11, r1
    151c:	f2 01       	movw	r30, r4
    151e:	60 81       	ld	r22, Z
    1520:	71 81       	ldd	r23, Z+1	; 0x01
    1522:	82 81       	ldd	r24, Z+2	; 0x02
    1524:	93 81       	ldd	r25, Z+3	; 0x03
    1526:	08 c0       	rjmp	.+16     	; 0x1538 <vfprintf+0x566>
    1528:	f2 e0       	ldi	r31, 0x02	; 2
    152a:	af 0e       	add	r10, r31
    152c:	b1 1c       	adc	r11, r1
    152e:	f2 01       	movw	r30, r4
    1530:	60 81       	ld	r22, Z
    1532:	71 81       	ldd	r23, Z+1	; 0x01
    1534:	80 e0       	ldi	r24, 0x00	; 0
    1536:	90 e0       	ldi	r25, 0x00	; 0
    1538:	a3 01       	movw	r20, r6
    153a:	0e 94 27 0d 	call	0x1a4e	; 0x1a4e <__ultoa_invert>
    153e:	e8 2e       	mov	r14, r24
    1540:	e6 18       	sub	r14, r6
    1542:	0f 77       	andi	r16, 0x7F	; 127
    1544:	30 2e       	mov	r3, r16
    1546:	36 fe       	sbrs	r3, 6
    1548:	0b c0       	rjmp	.+22     	; 0x1560 <vfprintf+0x58e>
    154a:	33 2d       	mov	r19, r3
    154c:	3e 7f       	andi	r19, 0xFE	; 254
    154e:	e1 16       	cp	r14, r17
    1550:	50 f4       	brcc	.+20     	; 0x1566 <vfprintf+0x594>
    1552:	34 fe       	sbrs	r3, 4
    1554:	0a c0       	rjmp	.+20     	; 0x156a <vfprintf+0x598>
    1556:	32 fc       	sbrc	r3, 2
    1558:	08 c0       	rjmp	.+16     	; 0x156a <vfprintf+0x598>
    155a:	33 2d       	mov	r19, r3
    155c:	3e 7e       	andi	r19, 0xEE	; 238
    155e:	05 c0       	rjmp	.+10     	; 0x156a <vfprintf+0x598>
    1560:	0e 2d       	mov	r16, r14
    1562:	33 2d       	mov	r19, r3
    1564:	03 c0       	rjmp	.+6      	; 0x156c <vfprintf+0x59a>
    1566:	0e 2d       	mov	r16, r14
    1568:	01 c0       	rjmp	.+2      	; 0x156c <vfprintf+0x59a>
    156a:	01 2f       	mov	r16, r17
    156c:	34 ff       	sbrs	r19, 4
    156e:	0c c0       	rjmp	.+24     	; 0x1588 <vfprintf+0x5b6>
    1570:	fe 01       	movw	r30, r28
    1572:	ee 0d       	add	r30, r14
    1574:	f1 1d       	adc	r31, r1
    1576:	80 81       	ld	r24, Z
    1578:	80 33       	cpi	r24, 0x30	; 48
    157a:	11 f4       	brne	.+4      	; 0x1580 <vfprintf+0x5ae>
    157c:	39 7e       	andi	r19, 0xE9	; 233
    157e:	08 c0       	rjmp	.+16     	; 0x1590 <vfprintf+0x5be>
    1580:	32 ff       	sbrs	r19, 2
    1582:	05 c0       	rjmp	.+10     	; 0x158e <vfprintf+0x5bc>
    1584:	0e 5f       	subi	r16, 0xFE	; 254
    1586:	04 c0       	rjmp	.+8      	; 0x1590 <vfprintf+0x5be>
    1588:	83 2f       	mov	r24, r19
    158a:	86 78       	andi	r24, 0x86	; 134
    158c:	09 f0       	breq	.+2      	; 0x1590 <vfprintf+0x5be>
    158e:	0f 5f       	subi	r16, 0xFF	; 255
    1590:	33 fd       	sbrc	r19, 3
    1592:	13 c0       	rjmp	.+38     	; 0x15ba <vfprintf+0x5e8>
    1594:	30 ff       	sbrs	r19, 0
    1596:	06 c0       	rjmp	.+12     	; 0x15a4 <vfprintf+0x5d2>
    1598:	1e 2d       	mov	r17, r14
    159a:	0f 15       	cp	r16, r15
    159c:	18 f4       	brcc	.+6      	; 0x15a4 <vfprintf+0x5d2>
    159e:	1f 0d       	add	r17, r15
    15a0:	10 1b       	sub	r17, r16
    15a2:	0f 2d       	mov	r16, r15
    15a4:	0f 15       	cp	r16, r15
    15a6:	68 f4       	brcc	.+26     	; 0x15c2 <vfprintf+0x5f0>
    15a8:	b6 01       	movw	r22, r12
    15aa:	80 e2       	ldi	r24, 0x20	; 32
    15ac:	90 e0       	ldi	r25, 0x00	; 0
    15ae:	3b 8b       	std	Y+19, r19	; 0x13
    15b0:	0e 94 cc 0c 	call	0x1998	; 0x1998 <fputc>
    15b4:	0f 5f       	subi	r16, 0xFF	; 255
    15b6:	3b 89       	ldd	r19, Y+19	; 0x13
    15b8:	f5 cf       	rjmp	.-22     	; 0x15a4 <vfprintf+0x5d2>
    15ba:	0f 15       	cp	r16, r15
    15bc:	10 f4       	brcc	.+4      	; 0x15c2 <vfprintf+0x5f0>
    15be:	f0 1a       	sub	r15, r16
    15c0:	01 c0       	rjmp	.+2      	; 0x15c4 <vfprintf+0x5f2>
    15c2:	f1 2c       	mov	r15, r1
    15c4:	34 ff       	sbrs	r19, 4
    15c6:	12 c0       	rjmp	.+36     	; 0x15ec <vfprintf+0x61a>
    15c8:	b6 01       	movw	r22, r12
    15ca:	80 e3       	ldi	r24, 0x30	; 48
    15cc:	90 e0       	ldi	r25, 0x00	; 0
    15ce:	3b 8b       	std	Y+19, r19	; 0x13
    15d0:	0e 94 cc 0c 	call	0x1998	; 0x1998 <fputc>
    15d4:	3b 89       	ldd	r19, Y+19	; 0x13
    15d6:	32 ff       	sbrs	r19, 2
    15d8:	17 c0       	rjmp	.+46     	; 0x1608 <vfprintf+0x636>
    15da:	31 fd       	sbrc	r19, 1
    15dc:	03 c0       	rjmp	.+6      	; 0x15e4 <vfprintf+0x612>
    15de:	88 e7       	ldi	r24, 0x78	; 120
    15e0:	90 e0       	ldi	r25, 0x00	; 0
    15e2:	02 c0       	rjmp	.+4      	; 0x15e8 <vfprintf+0x616>
    15e4:	88 e5       	ldi	r24, 0x58	; 88
    15e6:	90 e0       	ldi	r25, 0x00	; 0
    15e8:	b6 01       	movw	r22, r12
    15ea:	0c c0       	rjmp	.+24     	; 0x1604 <vfprintf+0x632>
    15ec:	83 2f       	mov	r24, r19
    15ee:	86 78       	andi	r24, 0x86	; 134
    15f0:	59 f0       	breq	.+22     	; 0x1608 <vfprintf+0x636>
    15f2:	31 ff       	sbrs	r19, 1
    15f4:	02 c0       	rjmp	.+4      	; 0x15fa <vfprintf+0x628>
    15f6:	8b e2       	ldi	r24, 0x2B	; 43
    15f8:	01 c0       	rjmp	.+2      	; 0x15fc <vfprintf+0x62a>
    15fa:	80 e2       	ldi	r24, 0x20	; 32
    15fc:	37 fd       	sbrc	r19, 7
    15fe:	8d e2       	ldi	r24, 0x2D	; 45
    1600:	b6 01       	movw	r22, r12
    1602:	90 e0       	ldi	r25, 0x00	; 0
    1604:	0e 94 cc 0c 	call	0x1998	; 0x1998 <fputc>
    1608:	e1 16       	cp	r14, r17
    160a:	38 f4       	brcc	.+14     	; 0x161a <vfprintf+0x648>
    160c:	b6 01       	movw	r22, r12
    160e:	80 e3       	ldi	r24, 0x30	; 48
    1610:	90 e0       	ldi	r25, 0x00	; 0
    1612:	0e 94 cc 0c 	call	0x1998	; 0x1998 <fputc>
    1616:	11 50       	subi	r17, 0x01	; 1
    1618:	f7 cf       	rjmp	.-18     	; 0x1608 <vfprintf+0x636>
    161a:	ea 94       	dec	r14
    161c:	f3 01       	movw	r30, r6
    161e:	ee 0d       	add	r30, r14
    1620:	f1 1d       	adc	r31, r1
    1622:	80 81       	ld	r24, Z
    1624:	b6 01       	movw	r22, r12
    1626:	90 e0       	ldi	r25, 0x00	; 0
    1628:	0e 94 cc 0c 	call	0x1998	; 0x1998 <fputc>
    162c:	e1 10       	cpse	r14, r1
    162e:	f5 cf       	rjmp	.-22     	; 0x161a <vfprintf+0x648>
    1630:	14 c0       	rjmp	.+40     	; 0x165a <vfprintf+0x688>
    1632:	f4 e0       	ldi	r31, 0x04	; 4
    1634:	ff 15       	cp	r31, r15
    1636:	58 f5       	brcc	.+86     	; 0x168e <vfprintf+0x6bc>
    1638:	84 e0       	ldi	r24, 0x04	; 4
    163a:	f8 1a       	sub	r15, r24
    163c:	33 fe       	sbrs	r3, 3
    163e:	1e c0       	rjmp	.+60     	; 0x167c <vfprintf+0x6aa>
    1640:	21 10       	cpse	r2, r1
    1642:	26 c0       	rjmp	.+76     	; 0x1690 <vfprintf+0x6be>
    1644:	03 ff       	sbrs	r16, 3
    1646:	2a c0       	rjmp	.+84     	; 0x169c <vfprintf+0x6ca>
    1648:	04 e5       	ldi	r16, 0x54	; 84
    164a:	10 e0       	ldi	r17, 0x00	; 0
    164c:	f3 2d       	mov	r31, r3
    164e:	f0 71       	andi	r31, 0x10	; 16
    1650:	3f 2e       	mov	r3, r31
    1652:	f8 01       	movw	r30, r16
    1654:	84 91       	lpm	r24, Z
    1656:	81 11       	cpse	r24, r1
    1658:	24 c0       	rjmp	.+72     	; 0x16a2 <vfprintf+0x6d0>
    165a:	ff 20       	and	r15, r15
    165c:	09 f4       	brne	.+2      	; 0x1660 <vfprintf+0x68e>
    165e:	e5 cc       	rjmp	.-1590   	; 0x102a <vfprintf+0x58>
    1660:	b6 01       	movw	r22, r12
    1662:	80 e2       	ldi	r24, 0x20	; 32
    1664:	90 e0       	ldi	r25, 0x00	; 0
    1666:	0e 94 cc 0c 	call	0x1998	; 0x1998 <fputc>
    166a:	fa 94       	dec	r15
    166c:	f6 cf       	rjmp	.-20     	; 0x165a <vfprintf+0x688>
    166e:	f6 01       	movw	r30, r12
    1670:	86 81       	ldd	r24, Z+6	; 0x06
    1672:	97 81       	ldd	r25, Z+7	; 0x07
    1674:	26 c0       	rjmp	.+76     	; 0x16c2 <vfprintf+0x6f0>
    1676:	8f ef       	ldi	r24, 0xFF	; 255
    1678:	9f ef       	ldi	r25, 0xFF	; 255
    167a:	23 c0       	rjmp	.+70     	; 0x16c2 <vfprintf+0x6f0>
    167c:	b6 01       	movw	r22, r12
    167e:	80 e2       	ldi	r24, 0x20	; 32
    1680:	90 e0       	ldi	r25, 0x00	; 0
    1682:	0e 94 cc 0c 	call	0x1998	; 0x1998 <fputc>
    1686:	fa 94       	dec	r15
    1688:	f1 10       	cpse	r15, r1
    168a:	f8 cf       	rjmp	.-16     	; 0x167c <vfprintf+0x6aa>
    168c:	d9 cf       	rjmp	.-78     	; 0x1640 <vfprintf+0x66e>
    168e:	f1 2c       	mov	r15, r1
    1690:	b6 01       	movw	r22, r12
    1692:	82 2d       	mov	r24, r2
    1694:	90 e0       	ldi	r25, 0x00	; 0
    1696:	0e 94 cc 0c 	call	0x1998	; 0x1998 <fputc>
    169a:	d4 cf       	rjmp	.-88     	; 0x1644 <vfprintf+0x672>
    169c:	08 e5       	ldi	r16, 0x58	; 88
    169e:	10 e0       	ldi	r17, 0x00	; 0
    16a0:	d5 cf       	rjmp	.-86     	; 0x164c <vfprintf+0x67a>
    16a2:	31 10       	cpse	r3, r1
    16a4:	80 52       	subi	r24, 0x20	; 32
    16a6:	b6 01       	movw	r22, r12
    16a8:	90 e0       	ldi	r25, 0x00	; 0
    16aa:	0e 94 cc 0c 	call	0x1998	; 0x1998 <fputc>
    16ae:	0f 5f       	subi	r16, 0xFF	; 255
    16b0:	1f 4f       	sbci	r17, 0xFF	; 255
    16b2:	cf cf       	rjmp	.-98     	; 0x1652 <vfprintf+0x680>
    16b4:	23 e0       	ldi	r18, 0x03	; 3
    16b6:	2f 15       	cp	r18, r15
    16b8:	10 f4       	brcc	.+4      	; 0x16be <vfprintf+0x6ec>
    16ba:	83 e0       	ldi	r24, 0x03	; 3
    16bc:	be cf       	rjmp	.-132    	; 0x163a <vfprintf+0x668>
    16be:	f1 2c       	mov	r15, r1
    16c0:	c1 cf       	rjmp	.-126    	; 0x1644 <vfprintf+0x672>
    16c2:	63 96       	adiw	r28, 0x13	; 19
    16c4:	e2 e1       	ldi	r30, 0x12	; 18
    16c6:	0c 94 ae 0b 	jmp	0x175c	; 0x175c <__epilogue_restores__>

000016ca <__udivmodsi4>:
    16ca:	a1 e2       	ldi	r26, 0x21	; 33
    16cc:	1a 2e       	mov	r1, r26
    16ce:	aa 1b       	sub	r26, r26
    16d0:	bb 1b       	sub	r27, r27
    16d2:	fd 01       	movw	r30, r26
    16d4:	0d c0       	rjmp	.+26     	; 0x16f0 <__udivmodsi4_ep>

000016d6 <__udivmodsi4_loop>:
    16d6:	aa 1f       	adc	r26, r26
    16d8:	bb 1f       	adc	r27, r27
    16da:	ee 1f       	adc	r30, r30
    16dc:	ff 1f       	adc	r31, r31
    16de:	a2 17       	cp	r26, r18
    16e0:	b3 07       	cpc	r27, r19
    16e2:	e4 07       	cpc	r30, r20
    16e4:	f5 07       	cpc	r31, r21
    16e6:	20 f0       	brcs	.+8      	; 0x16f0 <__udivmodsi4_ep>
    16e8:	a2 1b       	sub	r26, r18
    16ea:	b3 0b       	sbc	r27, r19
    16ec:	e4 0b       	sbc	r30, r20
    16ee:	f5 0b       	sbc	r31, r21

000016f0 <__udivmodsi4_ep>:
    16f0:	66 1f       	adc	r22, r22
    16f2:	77 1f       	adc	r23, r23
    16f4:	88 1f       	adc	r24, r24
    16f6:	99 1f       	adc	r25, r25
    16f8:	1a 94       	dec	r1
    16fa:	69 f7       	brne	.-38     	; 0x16d6 <__udivmodsi4_loop>
    16fc:	60 95       	com	r22
    16fe:	70 95       	com	r23
    1700:	80 95       	com	r24
    1702:	90 95       	com	r25
    1704:	9b 01       	movw	r18, r22
    1706:	ac 01       	movw	r20, r24
    1708:	bd 01       	movw	r22, r26
    170a:	cf 01       	movw	r24, r30
    170c:	08 95       	ret

0000170e <__muluhisi3>:
    170e:	0e 94 cf 0b 	call	0x179e	; 0x179e <__umulhisi3>
    1712:	a5 9f       	mul	r26, r21
    1714:	90 0d       	add	r25, r0
    1716:	b4 9f       	mul	r27, r20
    1718:	90 0d       	add	r25, r0
    171a:	a4 9f       	mul	r26, r20
    171c:	80 0d       	add	r24, r0
    171e:	91 1d       	adc	r25, r1
    1720:	11 24       	eor	r1, r1
    1722:	08 95       	ret

00001724 <__prologue_saves__>:
    1724:	2f 92       	push	r2
    1726:	3f 92       	push	r3
    1728:	4f 92       	push	r4
    172a:	5f 92       	push	r5
    172c:	6f 92       	push	r6
    172e:	7f 92       	push	r7
    1730:	8f 92       	push	r8
    1732:	9f 92       	push	r9
    1734:	af 92       	push	r10
    1736:	bf 92       	push	r11
    1738:	cf 92       	push	r12
    173a:	df 92       	push	r13
    173c:	ef 92       	push	r14
    173e:	ff 92       	push	r15
    1740:	0f 93       	push	r16
    1742:	1f 93       	push	r17
    1744:	cf 93       	push	r28
    1746:	df 93       	push	r29
    1748:	cd b7       	in	r28, 0x3d	; 61
    174a:	de b7       	in	r29, 0x3e	; 62
    174c:	ca 1b       	sub	r28, r26
    174e:	db 0b       	sbc	r29, r27
    1750:	0f b6       	in	r0, 0x3f	; 63
    1752:	f8 94       	cli
    1754:	de bf       	out	0x3e, r29	; 62
    1756:	0f be       	out	0x3f, r0	; 63
    1758:	cd bf       	out	0x3d, r28	; 61
    175a:	09 94       	ijmp

0000175c <__epilogue_restores__>:
    175c:	2a 88       	ldd	r2, Y+18	; 0x12
    175e:	39 88       	ldd	r3, Y+17	; 0x11
    1760:	48 88       	ldd	r4, Y+16	; 0x10
    1762:	5f 84       	ldd	r5, Y+15	; 0x0f
    1764:	6e 84       	ldd	r6, Y+14	; 0x0e
    1766:	7d 84       	ldd	r7, Y+13	; 0x0d
    1768:	8c 84       	ldd	r8, Y+12	; 0x0c
    176a:	9b 84       	ldd	r9, Y+11	; 0x0b
    176c:	aa 84       	ldd	r10, Y+10	; 0x0a
    176e:	b9 84       	ldd	r11, Y+9	; 0x09
    1770:	c8 84       	ldd	r12, Y+8	; 0x08
    1772:	df 80       	ldd	r13, Y+7	; 0x07
    1774:	ee 80       	ldd	r14, Y+6	; 0x06
    1776:	fd 80       	ldd	r15, Y+5	; 0x05
    1778:	0c 81       	ldd	r16, Y+4	; 0x04
    177a:	1b 81       	ldd	r17, Y+3	; 0x03
    177c:	aa 81       	ldd	r26, Y+2	; 0x02
    177e:	b9 81       	ldd	r27, Y+1	; 0x01
    1780:	ce 0f       	add	r28, r30
    1782:	d1 1d       	adc	r29, r1
    1784:	0f b6       	in	r0, 0x3f	; 63
    1786:	f8 94       	cli
    1788:	de bf       	out	0x3e, r29	; 62
    178a:	0f be       	out	0x3f, r0	; 63
    178c:	cd bf       	out	0x3d, r28	; 61
    178e:	ed 01       	movw	r28, r26
    1790:	08 95       	ret

00001792 <__tablejump2__>:
    1792:	ee 0f       	add	r30, r30
    1794:	ff 1f       	adc	r31, r31
    1796:	05 90       	lpm	r0, Z+
    1798:	f4 91       	lpm	r31, Z
    179a:	e0 2d       	mov	r30, r0
    179c:	09 94       	ijmp

0000179e <__umulhisi3>:
    179e:	a2 9f       	mul	r26, r18
    17a0:	b0 01       	movw	r22, r0
    17a2:	b3 9f       	mul	r27, r19
    17a4:	c0 01       	movw	r24, r0
    17a6:	a3 9f       	mul	r26, r19
    17a8:	70 0d       	add	r23, r0
    17aa:	81 1d       	adc	r24, r1
    17ac:	11 24       	eor	r1, r1
    17ae:	91 1d       	adc	r25, r1
    17b0:	b2 9f       	mul	r27, r18
    17b2:	70 0d       	add	r23, r0
    17b4:	81 1d       	adc	r24, r1
    17b6:	11 24       	eor	r1, r1
    17b8:	91 1d       	adc	r25, r1
    17ba:	08 95       	ret

000017bc <__ftoa_engine>:
    17bc:	28 30       	cpi	r18, 0x08	; 8
    17be:	08 f0       	brcs	.+2      	; 0x17c2 <__ftoa_engine+0x6>
    17c0:	27 e0       	ldi	r18, 0x07	; 7
    17c2:	33 27       	eor	r19, r19
    17c4:	da 01       	movw	r26, r20
    17c6:	99 0f       	add	r25, r25
    17c8:	31 1d       	adc	r19, r1
    17ca:	87 fd       	sbrc	r24, 7
    17cc:	91 60       	ori	r25, 0x01	; 1
    17ce:	00 96       	adiw	r24, 0x00	; 0
    17d0:	61 05       	cpc	r22, r1
    17d2:	71 05       	cpc	r23, r1
    17d4:	39 f4       	brne	.+14     	; 0x17e4 <__ftoa_engine+0x28>
    17d6:	32 60       	ori	r19, 0x02	; 2
    17d8:	2e 5f       	subi	r18, 0xFE	; 254
    17da:	3d 93       	st	X+, r19
    17dc:	30 e3       	ldi	r19, 0x30	; 48
    17de:	2a 95       	dec	r18
    17e0:	e1 f7       	brne	.-8      	; 0x17da <__ftoa_engine+0x1e>
    17e2:	08 95       	ret
    17e4:	9f 3f       	cpi	r25, 0xFF	; 255
    17e6:	30 f0       	brcs	.+12     	; 0x17f4 <__ftoa_engine+0x38>
    17e8:	80 38       	cpi	r24, 0x80	; 128
    17ea:	71 05       	cpc	r23, r1
    17ec:	61 05       	cpc	r22, r1
    17ee:	09 f0       	breq	.+2      	; 0x17f2 <__ftoa_engine+0x36>
    17f0:	3c 5f       	subi	r19, 0xFC	; 252
    17f2:	3c 5f       	subi	r19, 0xFC	; 252
    17f4:	3d 93       	st	X+, r19
    17f6:	91 30       	cpi	r25, 0x01	; 1
    17f8:	08 f0       	brcs	.+2      	; 0x17fc <__ftoa_engine+0x40>
    17fa:	80 68       	ori	r24, 0x80	; 128
    17fc:	91 1d       	adc	r25, r1
    17fe:	df 93       	push	r29
    1800:	cf 93       	push	r28
    1802:	1f 93       	push	r17
    1804:	0f 93       	push	r16
    1806:	ff 92       	push	r15
    1808:	ef 92       	push	r14
    180a:	19 2f       	mov	r17, r25
    180c:	98 7f       	andi	r25, 0xF8	; 248
    180e:	96 95       	lsr	r25
    1810:	e9 2f       	mov	r30, r25
    1812:	96 95       	lsr	r25
    1814:	96 95       	lsr	r25
    1816:	e9 0f       	add	r30, r25
    1818:	ff 27       	eor	r31, r31
    181a:	ea 54       	subi	r30, 0x4A	; 74
    181c:	ff 4f       	sbci	r31, 0xFF	; 255
    181e:	99 27       	eor	r25, r25
    1820:	33 27       	eor	r19, r19
    1822:	ee 24       	eor	r14, r14
    1824:	ff 24       	eor	r15, r15
    1826:	a7 01       	movw	r20, r14
    1828:	e7 01       	movw	r28, r14
    182a:	05 90       	lpm	r0, Z+
    182c:	08 94       	sec
    182e:	07 94       	ror	r0
    1830:	28 f4       	brcc	.+10     	; 0x183c <__ftoa_engine+0x80>
    1832:	36 0f       	add	r19, r22
    1834:	e7 1e       	adc	r14, r23
    1836:	f8 1e       	adc	r15, r24
    1838:	49 1f       	adc	r20, r25
    183a:	51 1d       	adc	r21, r1
    183c:	66 0f       	add	r22, r22
    183e:	77 1f       	adc	r23, r23
    1840:	88 1f       	adc	r24, r24
    1842:	99 1f       	adc	r25, r25
    1844:	06 94       	lsr	r0
    1846:	a1 f7       	brne	.-24     	; 0x1830 <__ftoa_engine+0x74>
    1848:	05 90       	lpm	r0, Z+
    184a:	07 94       	ror	r0
    184c:	28 f4       	brcc	.+10     	; 0x1858 <__ftoa_engine+0x9c>
    184e:	e7 0e       	add	r14, r23
    1850:	f8 1e       	adc	r15, r24
    1852:	49 1f       	adc	r20, r25
    1854:	56 1f       	adc	r21, r22
    1856:	c1 1d       	adc	r28, r1
    1858:	77 0f       	add	r23, r23
    185a:	88 1f       	adc	r24, r24
    185c:	99 1f       	adc	r25, r25
    185e:	66 1f       	adc	r22, r22
    1860:	06 94       	lsr	r0
    1862:	a1 f7       	brne	.-24     	; 0x184c <__ftoa_engine+0x90>
    1864:	05 90       	lpm	r0, Z+
    1866:	07 94       	ror	r0
    1868:	28 f4       	brcc	.+10     	; 0x1874 <__ftoa_engine+0xb8>
    186a:	f8 0e       	add	r15, r24
    186c:	49 1f       	adc	r20, r25
    186e:	56 1f       	adc	r21, r22
    1870:	c7 1f       	adc	r28, r23
    1872:	d1 1d       	adc	r29, r1
    1874:	88 0f       	add	r24, r24
    1876:	99 1f       	adc	r25, r25
    1878:	66 1f       	adc	r22, r22
    187a:	77 1f       	adc	r23, r23
    187c:	06 94       	lsr	r0
    187e:	a1 f7       	brne	.-24     	; 0x1868 <__ftoa_engine+0xac>
    1880:	05 90       	lpm	r0, Z+
    1882:	07 94       	ror	r0
    1884:	20 f4       	brcc	.+8      	; 0x188e <__ftoa_engine+0xd2>
    1886:	49 0f       	add	r20, r25
    1888:	56 1f       	adc	r21, r22
    188a:	c7 1f       	adc	r28, r23
    188c:	d8 1f       	adc	r29, r24
    188e:	99 0f       	add	r25, r25
    1890:	66 1f       	adc	r22, r22
    1892:	77 1f       	adc	r23, r23
    1894:	88 1f       	adc	r24, r24
    1896:	06 94       	lsr	r0
    1898:	a9 f7       	brne	.-22     	; 0x1884 <__ftoa_engine+0xc8>
    189a:	84 91       	lpm	r24, Z
    189c:	10 95       	com	r17
    189e:	17 70       	andi	r17, 0x07	; 7
    18a0:	41 f0       	breq	.+16     	; 0x18b2 <__ftoa_engine+0xf6>
    18a2:	d6 95       	lsr	r29
    18a4:	c7 95       	ror	r28
    18a6:	57 95       	ror	r21
    18a8:	47 95       	ror	r20
    18aa:	f7 94       	ror	r15
    18ac:	e7 94       	ror	r14
    18ae:	1a 95       	dec	r17
    18b0:	c1 f7       	brne	.-16     	; 0x18a2 <__ftoa_engine+0xe6>
    18b2:	ec e5       	ldi	r30, 0x5C	; 92
    18b4:	f0 e0       	ldi	r31, 0x00	; 0
    18b6:	68 94       	set
    18b8:	15 90       	lpm	r1, Z+
    18ba:	15 91       	lpm	r17, Z+
    18bc:	35 91       	lpm	r19, Z+
    18be:	65 91       	lpm	r22, Z+
    18c0:	95 91       	lpm	r25, Z+
    18c2:	05 90       	lpm	r0, Z+
    18c4:	7f e2       	ldi	r23, 0x2F	; 47
    18c6:	73 95       	inc	r23
    18c8:	e1 18       	sub	r14, r1
    18ca:	f1 0a       	sbc	r15, r17
    18cc:	43 0b       	sbc	r20, r19
    18ce:	56 0b       	sbc	r21, r22
    18d0:	c9 0b       	sbc	r28, r25
    18d2:	d0 09       	sbc	r29, r0
    18d4:	c0 f7       	brcc	.-16     	; 0x18c6 <__ftoa_engine+0x10a>
    18d6:	e1 0c       	add	r14, r1
    18d8:	f1 1e       	adc	r15, r17
    18da:	43 1f       	adc	r20, r19
    18dc:	56 1f       	adc	r21, r22
    18de:	c9 1f       	adc	r28, r25
    18e0:	d0 1d       	adc	r29, r0
    18e2:	7e f4       	brtc	.+30     	; 0x1902 <__ftoa_engine+0x146>
    18e4:	70 33       	cpi	r23, 0x30	; 48
    18e6:	11 f4       	brne	.+4      	; 0x18ec <__ftoa_engine+0x130>
    18e8:	8a 95       	dec	r24
    18ea:	e6 cf       	rjmp	.-52     	; 0x18b8 <__ftoa_engine+0xfc>
    18ec:	e8 94       	clt
    18ee:	01 50       	subi	r16, 0x01	; 1
    18f0:	30 f0       	brcs	.+12     	; 0x18fe <__ftoa_engine+0x142>
    18f2:	08 0f       	add	r16, r24
    18f4:	0a f4       	brpl	.+2      	; 0x18f8 <__ftoa_engine+0x13c>
    18f6:	00 27       	eor	r16, r16
    18f8:	02 17       	cp	r16, r18
    18fa:	08 f4       	brcc	.+2      	; 0x18fe <__ftoa_engine+0x142>
    18fc:	20 2f       	mov	r18, r16
    18fe:	23 95       	inc	r18
    1900:	02 2f       	mov	r16, r18
    1902:	7a 33       	cpi	r23, 0x3A	; 58
    1904:	28 f0       	brcs	.+10     	; 0x1910 <__ftoa_engine+0x154>
    1906:	79 e3       	ldi	r23, 0x39	; 57
    1908:	7d 93       	st	X+, r23
    190a:	2a 95       	dec	r18
    190c:	e9 f7       	brne	.-6      	; 0x1908 <__ftoa_engine+0x14c>
    190e:	10 c0       	rjmp	.+32     	; 0x1930 <__ftoa_engine+0x174>
    1910:	7d 93       	st	X+, r23
    1912:	2a 95       	dec	r18
    1914:	89 f6       	brne	.-94     	; 0x18b8 <__ftoa_engine+0xfc>
    1916:	06 94       	lsr	r0
    1918:	97 95       	ror	r25
    191a:	67 95       	ror	r22
    191c:	37 95       	ror	r19
    191e:	17 95       	ror	r17
    1920:	17 94       	ror	r1
    1922:	e1 18       	sub	r14, r1
    1924:	f1 0a       	sbc	r15, r17
    1926:	43 0b       	sbc	r20, r19
    1928:	56 0b       	sbc	r21, r22
    192a:	c9 0b       	sbc	r28, r25
    192c:	d0 09       	sbc	r29, r0
    192e:	98 f0       	brcs	.+38     	; 0x1956 <__ftoa_engine+0x19a>
    1930:	23 95       	inc	r18
    1932:	7e 91       	ld	r23, -X
    1934:	73 95       	inc	r23
    1936:	7a 33       	cpi	r23, 0x3A	; 58
    1938:	08 f0       	brcs	.+2      	; 0x193c <__ftoa_engine+0x180>
    193a:	70 e3       	ldi	r23, 0x30	; 48
    193c:	7c 93       	st	X, r23
    193e:	20 13       	cpse	r18, r16
    1940:	b8 f7       	brcc	.-18     	; 0x1930 <__ftoa_engine+0x174>
    1942:	7e 91       	ld	r23, -X
    1944:	70 61       	ori	r23, 0x10	; 16
    1946:	7d 93       	st	X+, r23
    1948:	30 f0       	brcs	.+12     	; 0x1956 <__ftoa_engine+0x19a>
    194a:	83 95       	inc	r24
    194c:	71 e3       	ldi	r23, 0x31	; 49
    194e:	7d 93       	st	X+, r23
    1950:	70 e3       	ldi	r23, 0x30	; 48
    1952:	2a 95       	dec	r18
    1954:	e1 f7       	brne	.-8      	; 0x194e <__ftoa_engine+0x192>
    1956:	11 24       	eor	r1, r1
    1958:	ef 90       	pop	r14
    195a:	ff 90       	pop	r15
    195c:	0f 91       	pop	r16
    195e:	1f 91       	pop	r17
    1960:	cf 91       	pop	r28
    1962:	df 91       	pop	r29
    1964:	99 27       	eor	r25, r25
    1966:	87 fd       	sbrc	r24, 7
    1968:	90 95       	com	r25
    196a:	08 95       	ret

0000196c <strnlen_P>:
    196c:	fc 01       	movw	r30, r24
    196e:	05 90       	lpm	r0, Z+
    1970:	61 50       	subi	r22, 0x01	; 1
    1972:	70 40       	sbci	r23, 0x00	; 0
    1974:	01 10       	cpse	r0, r1
    1976:	d8 f7       	brcc	.-10     	; 0x196e <strnlen_P+0x2>
    1978:	80 95       	com	r24
    197a:	90 95       	com	r25
    197c:	8e 0f       	add	r24, r30
    197e:	9f 1f       	adc	r25, r31
    1980:	08 95       	ret

00001982 <strnlen>:
    1982:	fc 01       	movw	r30, r24
    1984:	61 50       	subi	r22, 0x01	; 1
    1986:	70 40       	sbci	r23, 0x00	; 0
    1988:	01 90       	ld	r0, Z+
    198a:	01 10       	cpse	r0, r1
    198c:	d8 f7       	brcc	.-10     	; 0x1984 <strnlen+0x2>
    198e:	80 95       	com	r24
    1990:	90 95       	com	r25
    1992:	8e 0f       	add	r24, r30
    1994:	9f 1f       	adc	r25, r31
    1996:	08 95       	ret

00001998 <fputc>:
    1998:	0f 93       	push	r16
    199a:	1f 93       	push	r17
    199c:	cf 93       	push	r28
    199e:	df 93       	push	r29
    19a0:	fb 01       	movw	r30, r22
    19a2:	23 81       	ldd	r18, Z+3	; 0x03
    19a4:	21 fd       	sbrc	r18, 1
    19a6:	03 c0       	rjmp	.+6      	; 0x19ae <fputc+0x16>
    19a8:	8f ef       	ldi	r24, 0xFF	; 255
    19aa:	9f ef       	ldi	r25, 0xFF	; 255
    19ac:	28 c0       	rjmp	.+80     	; 0x19fe <fputc+0x66>
    19ae:	22 ff       	sbrs	r18, 2
    19b0:	16 c0       	rjmp	.+44     	; 0x19de <fputc+0x46>
    19b2:	46 81       	ldd	r20, Z+6	; 0x06
    19b4:	57 81       	ldd	r21, Z+7	; 0x07
    19b6:	24 81       	ldd	r18, Z+4	; 0x04
    19b8:	35 81       	ldd	r19, Z+5	; 0x05
    19ba:	42 17       	cp	r20, r18
    19bc:	53 07       	cpc	r21, r19
    19be:	44 f4       	brge	.+16     	; 0x19d0 <fputc+0x38>
    19c0:	a0 81       	ld	r26, Z
    19c2:	b1 81       	ldd	r27, Z+1	; 0x01
    19c4:	9d 01       	movw	r18, r26
    19c6:	2f 5f       	subi	r18, 0xFF	; 255
    19c8:	3f 4f       	sbci	r19, 0xFF	; 255
    19ca:	31 83       	std	Z+1, r19	; 0x01
    19cc:	20 83       	st	Z, r18
    19ce:	8c 93       	st	X, r24
    19d0:	26 81       	ldd	r18, Z+6	; 0x06
    19d2:	37 81       	ldd	r19, Z+7	; 0x07
    19d4:	2f 5f       	subi	r18, 0xFF	; 255
    19d6:	3f 4f       	sbci	r19, 0xFF	; 255
    19d8:	37 83       	std	Z+7, r19	; 0x07
    19da:	26 83       	std	Z+6, r18	; 0x06
    19dc:	10 c0       	rjmp	.+32     	; 0x19fe <fputc+0x66>
    19de:	eb 01       	movw	r28, r22
    19e0:	09 2f       	mov	r16, r25
    19e2:	18 2f       	mov	r17, r24
    19e4:	00 84       	ldd	r0, Z+8	; 0x08
    19e6:	f1 85       	ldd	r31, Z+9	; 0x09
    19e8:	e0 2d       	mov	r30, r0
    19ea:	09 95       	icall
    19ec:	89 2b       	or	r24, r25
    19ee:	e1 f6       	brne	.-72     	; 0x19a8 <fputc+0x10>
    19f0:	8e 81       	ldd	r24, Y+6	; 0x06
    19f2:	9f 81       	ldd	r25, Y+7	; 0x07
    19f4:	01 96       	adiw	r24, 0x01	; 1
    19f6:	9f 83       	std	Y+7, r25	; 0x07
    19f8:	8e 83       	std	Y+6, r24	; 0x06
    19fa:	81 2f       	mov	r24, r17
    19fc:	90 2f       	mov	r25, r16
    19fe:	df 91       	pop	r29
    1a00:	cf 91       	pop	r28
    1a02:	1f 91       	pop	r17
    1a04:	0f 91       	pop	r16
    1a06:	08 95       	ret

00001a08 <sprintf>:
    1a08:	ae e0       	ldi	r26, 0x0E	; 14
    1a0a:	b0 e0       	ldi	r27, 0x00	; 0
    1a0c:	ea e0       	ldi	r30, 0x0A	; 10
    1a0e:	fd e0       	ldi	r31, 0x0D	; 13
    1a10:	0c 94 a0 0b 	jmp	0x1740	; 0x1740 <__prologue_saves__+0x1c>
    1a14:	0d 89       	ldd	r16, Y+21	; 0x15
    1a16:	1e 89       	ldd	r17, Y+22	; 0x16
    1a18:	86 e0       	ldi	r24, 0x06	; 6
    1a1a:	8c 83       	std	Y+4, r24	; 0x04
    1a1c:	1a 83       	std	Y+2, r17	; 0x02
    1a1e:	09 83       	std	Y+1, r16	; 0x01
    1a20:	8f ef       	ldi	r24, 0xFF	; 255
    1a22:	9f e7       	ldi	r25, 0x7F	; 127
    1a24:	9e 83       	std	Y+6, r25	; 0x06
    1a26:	8d 83       	std	Y+5, r24	; 0x05
    1a28:	ae 01       	movw	r20, r28
    1a2a:	47 5e       	subi	r20, 0xE7	; 231
    1a2c:	5f 4f       	sbci	r21, 0xFF	; 255
    1a2e:	6f 89       	ldd	r22, Y+23	; 0x17
    1a30:	78 8d       	ldd	r23, Y+24	; 0x18
    1a32:	ce 01       	movw	r24, r28
    1a34:	01 96       	adiw	r24, 0x01	; 1
    1a36:	0e 94 e9 07 	call	0xfd2	; 0xfd2 <vfprintf>
    1a3a:	2f 81       	ldd	r18, Y+7	; 0x07
    1a3c:	38 85       	ldd	r19, Y+8	; 0x08
    1a3e:	f8 01       	movw	r30, r16
    1a40:	e2 0f       	add	r30, r18
    1a42:	f3 1f       	adc	r31, r19
    1a44:	10 82       	st	Z, r1
    1a46:	2e 96       	adiw	r28, 0x0e	; 14
    1a48:	e4 e0       	ldi	r30, 0x04	; 4
    1a4a:	0c 94 bc 0b 	jmp	0x1778	; 0x1778 <__epilogue_restores__+0x1c>

00001a4e <__ultoa_invert>:
    1a4e:	fa 01       	movw	r30, r20
    1a50:	aa 27       	eor	r26, r26
    1a52:	28 30       	cpi	r18, 0x08	; 8
    1a54:	51 f1       	breq	.+84     	; 0x1aaa <__ultoa_invert+0x5c>
    1a56:	20 31       	cpi	r18, 0x10	; 16
    1a58:	81 f1       	breq	.+96     	; 0x1aba <__ultoa_invert+0x6c>
    1a5a:	e8 94       	clt
    1a5c:	6f 93       	push	r22
    1a5e:	6e 7f       	andi	r22, 0xFE	; 254
    1a60:	6e 5f       	subi	r22, 0xFE	; 254
    1a62:	7f 4f       	sbci	r23, 0xFF	; 255
    1a64:	8f 4f       	sbci	r24, 0xFF	; 255
    1a66:	9f 4f       	sbci	r25, 0xFF	; 255
    1a68:	af 4f       	sbci	r26, 0xFF	; 255
    1a6a:	b1 e0       	ldi	r27, 0x01	; 1
    1a6c:	3e d0       	rcall	.+124    	; 0x1aea <__ultoa_invert+0x9c>
    1a6e:	b4 e0       	ldi	r27, 0x04	; 4
    1a70:	3c d0       	rcall	.+120    	; 0x1aea <__ultoa_invert+0x9c>
    1a72:	67 0f       	add	r22, r23
    1a74:	78 1f       	adc	r23, r24
    1a76:	89 1f       	adc	r24, r25
    1a78:	9a 1f       	adc	r25, r26
    1a7a:	a1 1d       	adc	r26, r1
    1a7c:	68 0f       	add	r22, r24
    1a7e:	79 1f       	adc	r23, r25
    1a80:	8a 1f       	adc	r24, r26
    1a82:	91 1d       	adc	r25, r1
    1a84:	a1 1d       	adc	r26, r1
    1a86:	6a 0f       	add	r22, r26
    1a88:	71 1d       	adc	r23, r1
    1a8a:	81 1d       	adc	r24, r1
    1a8c:	91 1d       	adc	r25, r1
    1a8e:	a1 1d       	adc	r26, r1
    1a90:	20 d0       	rcall	.+64     	; 0x1ad2 <__ultoa_invert+0x84>
    1a92:	09 f4       	brne	.+2      	; 0x1a96 <__ultoa_invert+0x48>
    1a94:	68 94       	set
    1a96:	3f 91       	pop	r19
    1a98:	2a e0       	ldi	r18, 0x0A	; 10
    1a9a:	26 9f       	mul	r18, r22
    1a9c:	11 24       	eor	r1, r1
    1a9e:	30 19       	sub	r19, r0
    1aa0:	30 5d       	subi	r19, 0xD0	; 208
    1aa2:	31 93       	st	Z+, r19
    1aa4:	de f6       	brtc	.-74     	; 0x1a5c <__ultoa_invert+0xe>
    1aa6:	cf 01       	movw	r24, r30
    1aa8:	08 95       	ret
    1aaa:	46 2f       	mov	r20, r22
    1aac:	47 70       	andi	r20, 0x07	; 7
    1aae:	40 5d       	subi	r20, 0xD0	; 208
    1ab0:	41 93       	st	Z+, r20
    1ab2:	b3 e0       	ldi	r27, 0x03	; 3
    1ab4:	0f d0       	rcall	.+30     	; 0x1ad4 <__ultoa_invert+0x86>
    1ab6:	c9 f7       	brne	.-14     	; 0x1aaa <__ultoa_invert+0x5c>
    1ab8:	f6 cf       	rjmp	.-20     	; 0x1aa6 <__ultoa_invert+0x58>
    1aba:	46 2f       	mov	r20, r22
    1abc:	4f 70       	andi	r20, 0x0F	; 15
    1abe:	40 5d       	subi	r20, 0xD0	; 208
    1ac0:	4a 33       	cpi	r20, 0x3A	; 58
    1ac2:	18 f0       	brcs	.+6      	; 0x1aca <__ultoa_invert+0x7c>
    1ac4:	49 5d       	subi	r20, 0xD9	; 217
    1ac6:	31 fd       	sbrc	r19, 1
    1ac8:	40 52       	subi	r20, 0x20	; 32
    1aca:	41 93       	st	Z+, r20
    1acc:	02 d0       	rcall	.+4      	; 0x1ad2 <__ultoa_invert+0x84>
    1ace:	a9 f7       	brne	.-22     	; 0x1aba <__ultoa_invert+0x6c>
    1ad0:	ea cf       	rjmp	.-44     	; 0x1aa6 <__ultoa_invert+0x58>
    1ad2:	b4 e0       	ldi	r27, 0x04	; 4
    1ad4:	a6 95       	lsr	r26
    1ad6:	97 95       	ror	r25
    1ad8:	87 95       	ror	r24
    1ada:	77 95       	ror	r23
    1adc:	67 95       	ror	r22
    1ade:	ba 95       	dec	r27
    1ae0:	c9 f7       	brne	.-14     	; 0x1ad4 <__ultoa_invert+0x86>
    1ae2:	00 97       	sbiw	r24, 0x00	; 0
    1ae4:	61 05       	cpc	r22, r1
    1ae6:	71 05       	cpc	r23, r1
    1ae8:	08 95       	ret
    1aea:	9b 01       	movw	r18, r22
    1aec:	ac 01       	movw	r20, r24
    1aee:	0a 2e       	mov	r0, r26
    1af0:	06 94       	lsr	r0
    1af2:	57 95       	ror	r21
    1af4:	47 95       	ror	r20
    1af6:	37 95       	ror	r19
    1af8:	27 95       	ror	r18
    1afa:	ba 95       	dec	r27
    1afc:	c9 f7       	brne	.-14     	; 0x1af0 <__ultoa_invert+0xa2>
    1afe:	62 0f       	add	r22, r18
    1b00:	73 1f       	adc	r23, r19
    1b02:	84 1f       	adc	r24, r20
    1b04:	95 1f       	adc	r25, r21
    1b06:	a0 1d       	adc	r26, r0
    1b08:	08 95       	ret

00001b0a <__do_global_dtors>:
    1b0a:	10 e0       	ldi	r17, 0x00	; 0
    1b0c:	cc ea       	ldi	r28, 0xAC	; 172
    1b0e:	d0 e0       	ldi	r29, 0x00	; 0
    1b10:	04 c0       	rjmp	.+8      	; 0x1b1a <__do_global_dtors+0x10>
    1b12:	fe 01       	movw	r30, r28
    1b14:	0e 94 c9 0b 	call	0x1792	; 0x1792 <__tablejump2__>
    1b18:	21 96       	adiw	r28, 0x01	; 1
    1b1a:	cd 3a       	cpi	r28, 0xAD	; 173
    1b1c:	d1 07       	cpc	r29, r17
    1b1e:	c9 f7       	brne	.-14     	; 0x1b12 <__do_global_dtors+0x8>
    1b20:	f8 94       	cli

00001b22 <__stop_program>:
    1b22:	ff cf       	rjmp	.-2      	; 0x1b22 <__stop_program>
